
LCD.elf:     file format elf32-avr

Sections:
Idx Name          Size      VMA       LMA       File off  Algn
  0 .text         00001b70  00000000  00000000  00000074  2**1
                  CONTENTS, ALLOC, LOAD, READONLY, CODE
  1 .data         00000188  00800060  00001b70  00001be4  2**0
                  CONTENTS, ALLOC, LOAD, DATA
  2 .bss          0000001f  008001e8  00001cf8  00001d6c  2**0
                  ALLOC
  3 .stab         00000378  00000000  00000000  00001d6c  2**2
                  CONTENTS, READONLY, DEBUGGING
  4 .stabstr      0000005f  00000000  00000000  000020e4  2**0
                  CONTENTS, READONLY, DEBUGGING
  5 .debug_aranges 00000100  00000000  00000000  00002143  2**0
                  CONTENTS, READONLY, DEBUGGING
  6 .debug_pubnames 00000291  00000000  00000000  00002243  2**0
                  CONTENTS, READONLY, DEBUGGING
  7 .debug_info   00000cd7  00000000  00000000  000024d4  2**0
                  CONTENTS, READONLY, DEBUGGING
  8 .debug_abbrev 00000589  00000000  00000000  000031ab  2**0
                  CONTENTS, READONLY, DEBUGGING
  9 .debug_line   00000baa  00000000  00000000  00003734  2**0
                  CONTENTS, READONLY, DEBUGGING
 10 .debug_frame  000001f0  00000000  00000000  000042e0  2**2
                  CONTENTS, READONLY, DEBUGGING
 11 .debug_str    00000329  00000000  00000000  000044d0  2**0
                  CONTENTS, READONLY, DEBUGGING
 12 .debug_loc    000002d7  00000000  00000000  000047f9  2**0
                  CONTENTS, READONLY, DEBUGGING
Disassembly of section .text:

00000000 <__vectors>:
       0:	0c 94 2a 00 	jmp	0x54	; 0x54 <__ctors_end>
       4:	0c 94 47 00 	jmp	0x8e	; 0x8e <__bad_interrupt>
       8:	0c 94 47 00 	jmp	0x8e	; 0x8e <__bad_interrupt>
       c:	0c 94 47 00 	jmp	0x8e	; 0x8e <__bad_interrupt>
      10:	0c 94 47 00 	jmp	0x8e	; 0x8e <__bad_interrupt>
      14:	0c 94 47 00 	jmp	0x8e	; 0x8e <__bad_interrupt>
      18:	0c 94 47 00 	jmp	0x8e	; 0x8e <__bad_interrupt>
      1c:	0c 94 60 03 	jmp	0x6c0	; 0x6c0 <__vector_7>
      20:	0c 94 47 00 	jmp	0x8e	; 0x8e <__bad_interrupt>
      24:	0c 94 47 00 	jmp	0x8e	; 0x8e <__bad_interrupt>
      28:	0c 94 47 00 	jmp	0x8e	; 0x8e <__bad_interrupt>
      2c:	0c 94 47 00 	jmp	0x8e	; 0x8e <__bad_interrupt>
      30:	0c 94 47 00 	jmp	0x8e	; 0x8e <__bad_interrupt>
      34:	0c 94 47 00 	jmp	0x8e	; 0x8e <__bad_interrupt>
      38:	0c 94 47 00 	jmp	0x8e	; 0x8e <__bad_interrupt>
      3c:	0c 94 47 00 	jmp	0x8e	; 0x8e <__bad_interrupt>
      40:	0c 94 47 00 	jmp	0x8e	; 0x8e <__bad_interrupt>
      44:	0c 94 47 00 	jmp	0x8e	; 0x8e <__bad_interrupt>
      48:	0c 94 47 00 	jmp	0x8e	; 0x8e <__bad_interrupt>
      4c:	0c 94 47 00 	jmp	0x8e	; 0x8e <__bad_interrupt>
      50:	0c 94 47 00 	jmp	0x8e	; 0x8e <__bad_interrupt>

00000054 <__ctors_end>:
      54:	11 24       	eor	r1, r1
      56:	1f be       	out	0x3f, r1	; 63
      58:	cf e5       	ldi	r28, 0x5F	; 95
      5a:	d8 e0       	ldi	r29, 0x08	; 8
      5c:	de bf       	out	0x3e, r29	; 62
      5e:	cd bf       	out	0x3d, r28	; 61

00000060 <__do_copy_data>:
      60:	11 e0       	ldi	r17, 0x01	; 1
      62:	a0 e6       	ldi	r26, 0x60	; 96
      64:	b0 e0       	ldi	r27, 0x00	; 0
      66:	e0 e7       	ldi	r30, 0x70	; 112
      68:	fb e1       	ldi	r31, 0x1B	; 27
      6a:	02 c0       	rjmp	.+4      	; 0x70 <.do_copy_data_start>

0000006c <.do_copy_data_loop>:
      6c:	05 90       	lpm	r0, Z+
      6e:	0d 92       	st	X+, r0

00000070 <.do_copy_data_start>:
      70:	a8 3e       	cpi	r26, 0xE8	; 232
      72:	b1 07       	cpc	r27, r17
      74:	d9 f7       	brne	.-10     	; 0x6c <.do_copy_data_loop>

00000076 <__do_clear_bss>:
      76:	12 e0       	ldi	r17, 0x02	; 2
      78:	a8 ee       	ldi	r26, 0xE8	; 232
      7a:	b1 e0       	ldi	r27, 0x01	; 1
      7c:	01 c0       	rjmp	.+2      	; 0x80 <.do_clear_bss_start>

0000007e <.do_clear_bss_loop>:
      7e:	1d 92       	st	X+, r1

00000080 <.do_clear_bss_start>:
      80:	a7 30       	cpi	r26, 0x07	; 7
      82:	b1 07       	cpc	r27, r17
      84:	e1 f7       	brne	.-8      	; 0x7e <.do_clear_bss_loop>
      86:	0e 94 49 00 	call	0x92	; 0x92 <main>
      8a:	0c 94 b7 0d 	jmp	0x1b6e	; 0x1b6e <_exit>

0000008e <__bad_interrupt>:
      8e:	0c 94 00 00 	jmp	0	; 0x0 <__heap_end>

00000092 <main>:
      92:	0e 94 51 01 	call	0x2a2	; 0x2a2 <LCD_init>
      96:	80 e0       	ldi	r24, 0x00	; 0
      98:	0e 94 93 00 	call	0x126	; 0x126 <LCD_cmd>
      9c:	0e 94 6e 04 	call	0x8dc	; 0x8dc <fixed_text>
      a0:	0e 94 52 03 	call	0x6a4	; 0x6a4 <timer1_init>
      a4:	80 91 fc 01 	lds	r24, 0x01FC
      a8:	90 91 fd 01 	lds	r25, 0x01FD
      ac:	89 2b       	or	r24, r25
      ae:	31 f0       	breq	.+12     	; 0xbc <main+0x2a>
      b0:	0e 94 e8 03 	call	0x7d0	; 0x7d0 <clock>
      b4:	10 92 fd 01 	sts	0x01FD, r1
      b8:	10 92 fc 01 	sts	0x01FC, r1
      bc:	80 91 f4 01 	lds	r24, 0x01F4
      c0:	90 91 f5 01 	lds	r25, 0x01F5
      c4:	89 2b       	or	r24, r25
      c6:	31 f0       	breq	.+12     	; 0xd4 <main+0x42>
      c8:	0e 94 0e 02 	call	0x41c	; 0x41c <light>
      cc:	10 92 f5 01 	sts	0x01F5, r1
      d0:	10 92 f4 01 	sts	0x01F4, r1
      d4:	80 91 00 02 	lds	r24, 0x0200
      d8:	90 91 01 02 	lds	r25, 0x0201
      dc:	89 2b       	or	r24, r25
      de:	31 f0       	breq	.+12     	; 0xec <main+0x5a>
      e0:	0e 94 68 02 	call	0x4d0	; 0x4d0 <temp>
      e4:	10 92 01 02 	sts	0x0201, r1
      e8:	10 92 00 02 	sts	0x0200, r1
      ec:	80 91 fe 01 	lds	r24, 0x01FE
      f0:	90 91 ff 01 	lds	r25, 0x01FF
      f4:	89 2b       	or	r24, r25
      f6:	41 f0       	breq	.+16     	; 0x108 <main+0x76>
      f8:	0e 94 97 01 	call	0x32e	; 0x32e <KEY_read>
      fc:	80 93 e8 01 	sts	0x01E8, r24
     100:	10 92 ff 01 	sts	0x01FF, r1
     104:	10 92 fe 01 	sts	0x01FE, r1
     108:	80 91 f0 01 	lds	r24, 0x01F0
     10c:	90 91 f1 01 	lds	r25, 0x01F1
     110:	89 2b       	or	r24, r25
     112:	41 f2       	breq	.-112    	; 0xa4 <main+0x12>
     114:	80 91 e8 01 	lds	r24, 0x01E8
     118:	0e 94 01 01 	call	0x202	; 0x202 <BL_dimmer>
     11c:	10 92 f1 01 	sts	0x01F1, r1
     120:	10 92 f0 01 	sts	0x01F0, r1
     124:	bf cf       	rjmp	.-130    	; 0xa4 <main+0x12>

00000126 <LCD_cmd>:
     126:	da 98       	cbi	0x1b, 2	; 27
     128:	db 98       	cbi	0x1b, 3	; 27
     12a:	ae 9a       	sbi	0x15, 6	; 21
     12c:	9b b3       	in	r25, 0x1b	; 27
     12e:	9f 70       	andi	r25, 0x0F	; 15
     130:	9b bb       	out	0x1b, r25	; 27
     132:	2b b3       	in	r18, 0x1b	; 27
     134:	98 2f       	mov	r25, r24
     136:	90 7f       	andi	r25, 0xF0	; 240
     138:	92 2b       	or	r25, r18
     13a:	9b bb       	out	0x1b, r25	; 27
     13c:	ae 98       	cbi	0x15, 6	; 21
     13e:	ae 9a       	sbi	0x15, 6	; 21
     140:	9b b3       	in	r25, 0x1b	; 27
     142:	9f 70       	andi	r25, 0x0F	; 15
     144:	9b bb       	out	0x1b, r25	; 27
     146:	9b b3       	in	r25, 0x1b	; 27
     148:	82 95       	swap	r24
     14a:	80 7f       	andi	r24, 0xF0	; 240
     14c:	98 2b       	or	r25, r24
     14e:	9b bb       	out	0x1b, r25	; 27
     150:	ae 98       	cbi	0x15, 6	; 21
     152:	80 e4       	ldi	r24, 0x40	; 64
     154:	9f e1       	ldi	r25, 0x1F	; 31
     156:	01 97       	sbiw	r24, 0x01	; 1
     158:	f1 f7       	brne	.-4      	; 0x156 <LCD_cmd+0x30>
     15a:	08 95       	ret

0000015c <LCD_prt>:
     15c:	da 9a       	sbi	0x1b, 2	; 27
     15e:	db 98       	cbi	0x1b, 3	; 27
     160:	ae 9a       	sbi	0x15, 6	; 21
     162:	9b b3       	in	r25, 0x1b	; 27
     164:	9f 70       	andi	r25, 0x0F	; 15
     166:	9b bb       	out	0x1b, r25	; 27
     168:	2b b3       	in	r18, 0x1b	; 27
     16a:	98 2f       	mov	r25, r24
     16c:	90 7f       	andi	r25, 0xF0	; 240
     16e:	92 2b       	or	r25, r18
     170:	9b bb       	out	0x1b, r25	; 27
     172:	ae 98       	cbi	0x15, 6	; 21
     174:	ae 9a       	sbi	0x15, 6	; 21
     176:	9b b3       	in	r25, 0x1b	; 27
     178:	9f 70       	andi	r25, 0x0F	; 15
     17a:	9b bb       	out	0x1b, r25	; 27
     17c:	9b b3       	in	r25, 0x1b	; 27
     17e:	82 95       	swap	r24
     180:	80 7f       	andi	r24, 0xF0	; 240
     182:	98 2b       	or	r25, r24
     184:	9b bb       	out	0x1b, r25	; 27
     186:	ae 98       	cbi	0x15, 6	; 21
     188:	80 e4       	ldi	r24, 0x40	; 64
     18a:	9f e1       	ldi	r25, 0x1F	; 31
     18c:	01 97       	sbiw	r24, 0x01	; 1
     18e:	f1 f7       	brne	.-4      	; 0x18c <LCD_prt+0x30>
     190:	08 95       	ret

00000192 <LCD_BL>:
     192:	00 97       	sbiw	r24, 0x00	; 0
     194:	19 f0       	breq	.+6      	; 0x19c <LCD_BL+0xa>
     196:	01 97       	sbiw	r24, 0x01	; 1
     198:	21 f4       	brne	.+8      	; 0x1a2 <LCD_BL+0x10>
     19a:	02 c0       	rjmp	.+4      	; 0x1a0 <LCD_BL+0xe>
     19c:	97 98       	cbi	0x12, 7	; 18
     19e:	08 95       	ret
     1a0:	97 9a       	sbi	0x12, 7	; 18
     1a2:	08 95       	ret

000001a4 <LCD_str>:
     1a4:	cf 93       	push	r28
     1a6:	df 93       	push	r29
     1a8:	ec 01       	movw	r28, r24
     1aa:	03 c0       	rjmp	.+6      	; 0x1b2 <LCD_str+0xe>
     1ac:	21 96       	adiw	r28, 0x01	; 1
     1ae:	0e 94 ae 00 	call	0x15c	; 0x15c <LCD_prt>
     1b2:	88 81       	ld	r24, Y
     1b4:	88 23       	and	r24, r24
     1b6:	d1 f7       	brne	.-12     	; 0x1ac <LCD_str+0x8>
     1b8:	df 91       	pop	r29
     1ba:	cf 91       	pop	r28
     1bc:	08 95       	ret

000001be <LCD_move>:
     1be:	00 97       	sbiw	r24, 0x00	; 0
     1c0:	19 f0       	breq	.+6      	; 0x1c8 <LCD_move+0xa>
     1c2:	01 97       	sbiw	r24, 0x01	; 1
     1c4:	41 f4       	brne	.+16     	; 0x1d6 <LCD_move+0x18>
     1c6:	04 c0       	rjmp	.+8      	; 0x1d0 <LCD_move+0x12>
     1c8:	80 e1       	ldi	r24, 0x10	; 16
     1ca:	0e 94 93 00 	call	0x126	; 0x126 <LCD_cmd>
     1ce:	08 95       	ret
     1d0:	84 e1       	ldi	r24, 0x14	; 20
     1d2:	0e 94 93 00 	call	0x126	; 0x126 <LCD_cmd>
     1d6:	08 95       	ret

000001d8 <LCD_goto>:
     1d8:	61 30       	cpi	r22, 0x01	; 1
     1da:	71 05       	cpc	r23, r1
     1dc:	21 f0       	breq	.+8      	; 0x1e6 <LCD_goto+0xe>
     1de:	62 30       	cpi	r22, 0x02	; 2
     1e0:	71 05       	cpc	r23, r1
     1e2:	51 f4       	brne	.+20     	; 0x1f8 <LCD_goto+0x20>
     1e4:	05 c0       	rjmp	.+10     	; 0x1f0 <LCD_goto+0x18>
     1e6:	81 50       	subi	r24, 0x01	; 1
     1e8:	80 68       	ori	r24, 0x80	; 128
     1ea:	0e 94 93 00 	call	0x126	; 0x126 <LCD_cmd>
     1ee:	08 95       	ret
     1f0:	89 5d       	subi	r24, 0xD9	; 217
     1f2:	80 68       	ori	r24, 0x80	; 128
     1f4:	0e 94 93 00 	call	0x126	; 0x126 <LCD_cmd>
     1f8:	08 95       	ret

000001fa <LCD_clr>:
     1fa:	81 e0       	ldi	r24, 0x01	; 1
     1fc:	0e 94 93 00 	call	0x126	; 0x126 <LCD_cmd>
     200:	08 95       	ret

00000202 <BL_dimmer>:
     202:	98 2f       	mov	r25, r24
     204:	85 b5       	in	r24, 0x25	; 37
     206:	89 66       	ori	r24, 0x69	; 105
     208:	85 bd       	out	0x25, r24	; 37
     20a:	80 91 e9 01 	lds	r24, 0x01E9
     20e:	88 23       	and	r24, r24
     210:	19 f0       	breq	.+6      	; 0x218 <BL_dimmer+0x16>
     212:	81 50       	subi	r24, 0x01	; 1
     214:	80 93 e9 01 	sts	0x01E9, r24
     218:	93 32       	cpi	r25, 0x23	; 35
     21a:	79 f4       	brne	.+30     	; 0x23a <BL_dimmer+0x38>
     21c:	80 91 e9 01 	lds	r24, 0x01E9
     220:	88 23       	and	r24, r24
     222:	59 f4       	brne	.+22     	; 0x23a <BL_dimmer+0x38>
     224:	90 e0       	ldi	r25, 0x00	; 0
     226:	80 91 68 00 	lds	r24, 0x0068
     22a:	88 23       	and	r24, r24
     22c:	09 f4       	brne	.+2      	; 0x230 <BL_dimmer+0x2e>
     22e:	91 e0       	ldi	r25, 0x01	; 1
     230:	90 93 68 00 	sts	0x0068, r25
     234:	8a e0       	ldi	r24, 0x0A	; 10
     236:	80 93 e9 01 	sts	0x01E9, r24
     23a:	80 91 68 00 	lds	r24, 0x0068
     23e:	88 23       	and	r24, r24
     240:	b1 f0       	breq	.+44     	; 0x26e <BL_dimmer+0x6c>
     242:	81 30       	cpi	r24, 0x01	; 1
     244:	51 f5       	brne	.+84     	; 0x29a <BL_dimmer+0x98>
     246:	62 e0       	ldi	r22, 0x02	; 2
     248:	70 e0       	ldi	r23, 0x00	; 0
     24a:	8a e0       	ldi	r24, 0x0A	; 10
     24c:	90 e0       	ldi	r25, 0x00	; 0
     24e:	0e 94 ec 00 	call	0x1d8	; 0x1d8 <LCD_goto>
     252:	80 e6       	ldi	r24, 0x60	; 96
     254:	90 e0       	ldi	r25, 0x00	; 0
     256:	0e 94 d2 00 	call	0x1a4	; 0x1a4 <LCD_str>
     25a:	80 91 69 00 	lds	r24, 0x0069
     25e:	8f 3f       	cpi	r24, 0xFF	; 255
     260:	e1 f0       	breq	.+56     	; 0x29a <BL_dimmer+0x98>
     262:	80 3f       	cpi	r24, 0xF0	; 240
     264:	10 f0       	brcs	.+4      	; 0x26a <BL_dimmer+0x68>
     266:	8f ef       	ldi	r24, 0xFF	; 255
     268:	16 c0       	rjmp	.+44     	; 0x296 <BL_dimmer+0x94>
     26a:	81 5f       	subi	r24, 0xF1	; 241
     26c:	14 c0       	rjmp	.+40     	; 0x296 <BL_dimmer+0x94>
     26e:	62 e0       	ldi	r22, 0x02	; 2
     270:	70 e0       	ldi	r23, 0x00	; 0
     272:	8a e0       	ldi	r24, 0x0A	; 10
     274:	90 e0       	ldi	r25, 0x00	; 0
     276:	0e 94 ec 00 	call	0x1d8	; 0x1d8 <LCD_goto>
     27a:	84 e6       	ldi	r24, 0x64	; 100
     27c:	90 e0       	ldi	r25, 0x00	; 0
     27e:	0e 94 d2 00 	call	0x1a4	; 0x1a4 <LCD_str>
     282:	80 91 69 00 	lds	r24, 0x0069
     286:	88 23       	and	r24, r24
     288:	41 f0       	breq	.+16     	; 0x29a <BL_dimmer+0x98>
     28a:	80 31       	cpi	r24, 0x10	; 16
     28c:	18 f4       	brcc	.+6      	; 0x294 <BL_dimmer+0x92>
     28e:	10 92 69 00 	sts	0x0069, r1
     292:	03 c0       	rjmp	.+6      	; 0x29a <BL_dimmer+0x98>
     294:	8f 50       	subi	r24, 0x0F	; 15
     296:	80 93 69 00 	sts	0x0069, r24
     29a:	80 91 69 00 	lds	r24, 0x0069
     29e:	83 bd       	out	0x23, r24	; 35
     2a0:	08 95       	ret

000002a2 <LCD_init>:
     2a2:	8c ef       	ldi	r24, 0xFC	; 252
     2a4:	8a bb       	out	0x1a, r24	; 26
     2a6:	80 e4       	ldi	r24, 0x40	; 64
     2a8:	84 bb       	out	0x14, r24	; 20
     2aa:	8f ef       	ldi	r24, 0xFF	; 255
     2ac:	81 bb       	out	0x11, r24	; 17
     2ae:	28 ee       	ldi	r18, 0xE8	; 232
     2b0:	33 e0       	ldi	r19, 0x03	; 3
     2b2:	80 e9       	ldi	r24, 0x90	; 144
     2b4:	91 e0       	ldi	r25, 0x01	; 1
     2b6:	01 97       	sbiw	r24, 0x01	; 1
     2b8:	f1 f7       	brne	.-4      	; 0x2b6 <LCD_init+0x14>
     2ba:	21 50       	subi	r18, 0x01	; 1
     2bc:	30 40       	sbci	r19, 0x00	; 0
     2be:	c9 f7       	brne	.-14     	; 0x2b2 <LCD_init+0x10>
     2c0:	88 e2       	ldi	r24, 0x28	; 40
     2c2:	0e 94 93 00 	call	0x126	; 0x126 <LCD_cmd>
     2c6:	80 e4       	ldi	r24, 0x40	; 64
     2c8:	9c e9       	ldi	r25, 0x9C	; 156
     2ca:	01 97       	sbiw	r24, 0x01	; 1
     2cc:	f1 f7       	brne	.-4      	; 0x2ca <LCD_init+0x28>
     2ce:	88 e2       	ldi	r24, 0x28	; 40
     2d0:	0e 94 93 00 	call	0x126	; 0x126 <LCD_cmd>
     2d4:	88 e2       	ldi	r24, 0x28	; 40
     2d6:	0e 94 93 00 	call	0x126	; 0x126 <LCD_cmd>
     2da:	86 e0       	ldi	r24, 0x06	; 6
     2dc:	0e 94 93 00 	call	0x126	; 0x126 <LCD_cmd>
     2e0:	8c e0       	ldi	r24, 0x0C	; 12
     2e2:	0e 94 93 00 	call	0x126	; 0x126 <LCD_cmd>
     2e6:	81 e0       	ldi	r24, 0x01	; 1
     2e8:	0e 94 93 00 	call	0x126	; 0x126 <LCD_cmd>
     2ec:	08 95       	ret

000002ee <rows_init>:
     2ee:	81 b3       	in	r24, 0x11	; 17
     2f0:	87 78       	andi	r24, 0x87	; 135
     2f2:	81 bb       	out	0x11, r24	; 17
     2f4:	82 b3       	in	r24, 0x12	; 18
     2f6:	88 67       	ori	r24, 0x78	; 120
     2f8:	82 bb       	out	0x12, r24	; 18
     2fa:	87 b3       	in	r24, 0x17	; 23
     2fc:	87 60       	ori	r24, 0x07	; 7
     2fe:	87 bb       	out	0x17, r24	; 23
     300:	88 b3       	in	r24, 0x18	; 24
     302:	88 7f       	andi	r24, 0xF8	; 248
     304:	88 bb       	out	0x18, r24	; 24
     306:	85 e0       	ldi	r24, 0x05	; 5
     308:	8a 95       	dec	r24
     30a:	f1 f7       	brne	.-4      	; 0x308 <rows_init+0x1a>
     30c:	08 95       	ret

0000030e <col_init>:
     30e:	87 b3       	in	r24, 0x17	; 23
     310:	88 7f       	andi	r24, 0xF8	; 248
     312:	87 bb       	out	0x17, r24	; 23
     314:	88 b3       	in	r24, 0x18	; 24
     316:	87 60       	ori	r24, 0x07	; 7
     318:	88 bb       	out	0x18, r24	; 24
     31a:	81 b3       	in	r24, 0x11	; 17
     31c:	88 67       	ori	r24, 0x78	; 120
     31e:	81 bb       	out	0x11, r24	; 17
     320:	82 b3       	in	r24, 0x12	; 18
     322:	87 78       	andi	r24, 0x87	; 135
     324:	82 bb       	out	0x12, r24	; 18
     326:	85 e0       	ldi	r24, 0x05	; 5
     328:	8a 95       	dec	r24
     32a:	f1 f7       	brne	.-4      	; 0x328 <col_init+0x1a>
     32c:	08 95       	ret

0000032e <KEY_read>:
     32e:	0f 93       	push	r16
     330:	1f 93       	push	r17
     332:	0e 94 77 01 	call	0x2ee	; 0x2ee <rows_init>
     336:	00 b3       	in	r16, 0x10	; 16
     338:	0e 94 87 01 	call	0x30e	; 0x30e <col_init>
     33c:	86 b3       	in	r24, 0x16	; 22
     33e:	88 6f       	ori	r24, 0xF8	; 248
     340:	90 e0       	ldi	r25, 0x00	; 0
     342:	07 68       	ori	r16, 0x87	; 135
     344:	10 e0       	ldi	r17, 0x00	; 0
     346:	80 23       	and	r24, r16
     348:	91 23       	and	r25, r17
     34a:	8e 3d       	cpi	r24, 0xDE	; 222
     34c:	91 05       	cpc	r25, r1
     34e:	b9 f1       	breq	.+110    	; 0x3be <KEY_read+0x90>
     350:	8f 3d       	cpi	r24, 0xDF	; 223
     352:	91 05       	cpc	r25, r1
     354:	a0 f4       	brcc	.+40     	; 0x37e <KEY_read+0x50>
     356:	8e 3b       	cpi	r24, 0xBE	; 190
     358:	91 05       	cpc	r25, r1
     35a:	59 f1       	breq	.+86     	; 0x3b2 <KEY_read+0x84>
     35c:	8f 3b       	cpi	r24, 0xBF	; 191
     35e:	91 05       	cpc	r25, r1
     360:	38 f4       	brcc	.+14     	; 0x370 <KEY_read+0x42>
     362:	8b 3b       	cpi	r24, 0xBB	; 187
     364:	91 05       	cpc	r25, r1
     366:	39 f1       	breq	.+78     	; 0x3b6 <KEY_read+0x88>
     368:	8d 3b       	cpi	r24, 0xBD	; 189
     36a:	91 05       	cpc	r25, r1
     36c:	01 f5       	brne	.+64     	; 0x3ae <KEY_read+0x80>
     36e:	25 c0       	rjmp	.+74     	; 0x3ba <KEY_read+0x8c>
     370:	8b 3d       	cpi	r24, 0xDB	; 219
     372:	91 05       	cpc	r25, r1
     374:	41 f1       	breq	.+80     	; 0x3c6 <KEY_read+0x98>
     376:	8d 3d       	cpi	r24, 0xDD	; 221
     378:	91 05       	cpc	r25, r1
     37a:	c9 f4       	brne	.+50     	; 0x3ae <KEY_read+0x80>
     37c:	22 c0       	rjmp	.+68     	; 0x3c2 <KEY_read+0x94>
     37e:	8e 3e       	cpi	r24, 0xEE	; 238
     380:	91 05       	cpc	r25, r1
     382:	19 f1       	breq	.+70     	; 0x3ca <KEY_read+0x9c>
     384:	8f 3e       	cpi	r24, 0xEF	; 239
     386:	91 05       	cpc	r25, r1
     388:	38 f4       	brcc	.+14     	; 0x398 <KEY_read+0x6a>
     38a:	8b 3e       	cpi	r24, 0xEB	; 235
     38c:	91 05       	cpc	r25, r1
     38e:	09 f1       	breq	.+66     	; 0x3d2 <KEY_read+0xa4>
     390:	8d 3e       	cpi	r24, 0xED	; 237
     392:	91 05       	cpc	r25, r1
     394:	61 f4       	brne	.+24     	; 0x3ae <KEY_read+0x80>
     396:	1b c0       	rjmp	.+54     	; 0x3ce <KEY_read+0xa0>
     398:	85 3f       	cpi	r24, 0xF5	; 245
     39a:	91 05       	cpc	r25, r1
     39c:	f1 f0       	breq	.+60     	; 0x3da <KEY_read+0xac>
     39e:	86 3f       	cpi	r24, 0xF6	; 246
     3a0:	91 05       	cpc	r25, r1
     3a2:	c9 f0       	breq	.+50     	; 0x3d6 <KEY_read+0xa8>
     3a4:	83 3f       	cpi	r24, 0xF3	; 243
     3a6:	91 05       	cpc	r25, r1
     3a8:	11 f4       	brne	.+4      	; 0x3ae <KEY_read+0x80>
     3aa:	93 e3       	ldi	r25, 0x33	; 51
     3ac:	17 c0       	rjmp	.+46     	; 0x3dc <KEY_read+0xae>
     3ae:	90 e0       	ldi	r25, 0x00	; 0
     3b0:	15 c0       	rjmp	.+42     	; 0x3dc <KEY_read+0xae>
     3b2:	9a e2       	ldi	r25, 0x2A	; 42
     3b4:	13 c0       	rjmp	.+38     	; 0x3dc <KEY_read+0xae>
     3b6:	93 e2       	ldi	r25, 0x23	; 35
     3b8:	11 c0       	rjmp	.+34     	; 0x3dc <KEY_read+0xae>
     3ba:	90 e3       	ldi	r25, 0x30	; 48
     3bc:	0f c0       	rjmp	.+30     	; 0x3dc <KEY_read+0xae>
     3be:	97 e3       	ldi	r25, 0x37	; 55
     3c0:	0d c0       	rjmp	.+26     	; 0x3dc <KEY_read+0xae>
     3c2:	98 e3       	ldi	r25, 0x38	; 56
     3c4:	0b c0       	rjmp	.+22     	; 0x3dc <KEY_read+0xae>
     3c6:	99 e3       	ldi	r25, 0x39	; 57
     3c8:	09 c0       	rjmp	.+18     	; 0x3dc <KEY_read+0xae>
     3ca:	94 e3       	ldi	r25, 0x34	; 52
     3cc:	07 c0       	rjmp	.+14     	; 0x3dc <KEY_read+0xae>
     3ce:	95 e3       	ldi	r25, 0x35	; 53
     3d0:	05 c0       	rjmp	.+10     	; 0x3dc <KEY_read+0xae>
     3d2:	96 e3       	ldi	r25, 0x36	; 54
     3d4:	03 c0       	rjmp	.+6      	; 0x3dc <KEY_read+0xae>
     3d6:	91 e3       	ldi	r25, 0x31	; 49
     3d8:	01 c0       	rjmp	.+2      	; 0x3dc <KEY_read+0xae>
     3da:	92 e3       	ldi	r25, 0x32	; 50
     3dc:	80 91 6a 00 	lds	r24, 0x006A
     3e0:	98 17       	cp	r25, r24
     3e2:	29 f4       	brne	.+10     	; 0x3ee <KEY_read+0xc0>
     3e4:	90 93 6a 00 	sts	0x006A, r25
     3e8:	89 2f       	mov	r24, r25
     3ea:	90 e0       	ldi	r25, 0x00	; 0
     3ec:	04 c0       	rjmp	.+8      	; 0x3f6 <KEY_read+0xc8>
     3ee:	90 93 6a 00 	sts	0x006A, r25
     3f2:	80 e0       	ldi	r24, 0x00	; 0
     3f4:	90 e0       	ldi	r25, 0x00	; 0
     3f6:	1f 91       	pop	r17
     3f8:	0f 91       	pop	r16
     3fa:	08 95       	ret

000003fc <ADC_init>:
     3fc:	00 97       	sbiw	r24, 0x00	; 0
     3fe:	19 f0       	breq	.+6      	; 0x406 <ADC_init+0xa>
     400:	01 97       	sbiw	r24, 0x01	; 1
     402:	21 f4       	brne	.+8      	; 0x40c <ADC_init+0x10>
     404:	02 c0       	rjmp	.+4      	; 0x40a <ADC_init+0xe>
     406:	38 98       	cbi	0x07, 0	; 7
     408:	01 c0       	rjmp	.+2      	; 0x40c <ADC_init+0x10>
     40a:	38 9a       	sbi	0x07, 0	; 7
     40c:	87 e9       	ldi	r24, 0x97	; 151
     40e:	86 b9       	out	0x06, r24	; 6
     410:	36 9a       	sbi	0x06, 6	; 6
     412:	34 9b       	sbis	0x06, 4	; 6
     414:	fe cf       	rjmp	.-4      	; 0x412 <ADC_init+0x16>
     416:	84 b1       	in	r24, 0x04	; 4
     418:	95 b1       	in	r25, 0x05	; 5
     41a:	08 95       	ret

0000041c <light>:
     41c:	0f 93       	push	r16
     41e:	1f 93       	push	r17
     420:	cf 93       	push	r28
     422:	df 93       	push	r29
     424:	cd b7       	in	r28, 0x3d	; 61
     426:	de b7       	in	r29, 0x3e	; 62
     428:	2f 97       	sbiw	r28, 0x0f	; 15
     42a:	0f b6       	in	r0, 0x3f	; 63
     42c:	f8 94       	cli
     42e:	de bf       	out	0x3e, r29	; 62
     430:	0f be       	out	0x3f, r0	; 63
     432:	cd bf       	out	0x3d, r28	; 61
     434:	80 91 6b 00 	lds	r24, 0x006B
     438:	90 91 6c 00 	lds	r25, 0x006C
     43c:	9a 83       	std	Y+2, r25	; 0x02
     43e:	89 83       	std	Y+1, r24	; 0x01
     440:	de 01       	movw	r26, r28
     442:	13 96       	adiw	r26, 0x03	; 3
     444:	ed e6       	ldi	r30, 0x6D	; 109
     446:	f0 e0       	ldi	r31, 0x00	; 0
     448:	83 e0       	ldi	r24, 0x03	; 3
     44a:	01 90       	ld	r0, Z+
     44c:	0d 92       	st	X+, r0
     44e:	81 50       	subi	r24, 0x01	; 1
     450:	e1 f7       	brne	.-8      	; 0x44a <light+0x2e>
     452:	81 e0       	ldi	r24, 0x01	; 1
     454:	90 e0       	ldi	r25, 0x00	; 0
     456:	0e 94 fe 01 	call	0x3fc	; 0x3fc <ADC_init>
     45a:	84 b1       	in	r24, 0x04	; 4
     45c:	95 b1       	in	r25, 0x05	; 5
     45e:	8e 01       	movw	r16, r28
     460:	0a 5f       	subi	r16, 0xFA	; 250
     462:	1f 4f       	sbci	r17, 0xFF	; 255
     464:	4a e0       	ldi	r20, 0x0A	; 10
     466:	50 e0       	ldi	r21, 0x00	; 0
     468:	b8 01       	movw	r22, r16
     46a:	0e 94 6b 0a 	call	0x14d6	; 0x14d6 <itoa>
     46e:	62 e0       	ldi	r22, 0x02	; 2
     470:	70 e0       	ldi	r23, 0x00	; 0
     472:	85 e0       	ldi	r24, 0x05	; 5
     474:	90 e0       	ldi	r25, 0x00	; 0
     476:	0e 94 ec 00 	call	0x1d8	; 0x1d8 <LCD_goto>
     47a:	f8 01       	movw	r30, r16
     47c:	01 90       	ld	r0, Z+
     47e:	00 20       	and	r0, r0
     480:	e9 f7       	brne	.-6      	; 0x47c <light+0x60>
     482:	32 97       	sbiw	r30, 0x02	; 2
     484:	e0 17       	cp	r30, r16
     486:	f1 07       	cpc	r31, r17
     488:	39 f4       	brne	.+14     	; 0x498 <light+0x7c>
     48a:	b8 01       	movw	r22, r16
     48c:	ce 01       	movw	r24, r28
     48e:	03 96       	adiw	r24, 0x03	; 3
     490:	0e 94 60 0a 	call	0x14c0	; 0x14c0 <strcat>
     494:	0e 94 d2 00 	call	0x1a4	; 0x1a4 <LCD_str>
     498:	f8 01       	movw	r30, r16
     49a:	01 90       	ld	r0, Z+
     49c:	00 20       	and	r0, r0
     49e:	e9 f7       	brne	.-6      	; 0x49a <light+0x7e>
     4a0:	33 97       	sbiw	r30, 0x03	; 3
     4a2:	e0 17       	cp	r30, r16
     4a4:	f1 07       	cpc	r31, r17
     4a6:	31 f4       	brne	.+12     	; 0x4b4 <light+0x98>
     4a8:	b8 01       	movw	r22, r16
     4aa:	ce 01       	movw	r24, r28
     4ac:	01 96       	adiw	r24, 0x01	; 1
     4ae:	0e 94 60 0a 	call	0x14c0	; 0x14c0 <strcat>
     4b2:	01 c0       	rjmp	.+2      	; 0x4b6 <light+0x9a>
     4b4:	c8 01       	movw	r24, r16
     4b6:	0e 94 d2 00 	call	0x1a4	; 0x1a4 <LCD_str>
     4ba:	2f 96       	adiw	r28, 0x0f	; 15
     4bc:	0f b6       	in	r0, 0x3f	; 63
     4be:	f8 94       	cli
     4c0:	de bf       	out	0x3e, r29	; 62
     4c2:	0f be       	out	0x3f, r0	; 63
     4c4:	cd bf       	out	0x3d, r28	; 61
     4c6:	df 91       	pop	r29
     4c8:	cf 91       	pop	r28
     4ca:	1f 91       	pop	r17
     4cc:	0f 91       	pop	r16
     4ce:	08 95       	ret

000004d0 <temp>:
     4d0:	0f 93       	push	r16
     4d2:	1f 93       	push	r17
     4d4:	cf 93       	push	r28
     4d6:	df 93       	push	r29
     4d8:	cd b7       	in	r28, 0x3d	; 61
     4da:	de b7       	in	r29, 0x3e	; 62
     4dc:	64 97       	sbiw	r28, 0x14	; 20
     4de:	0f b6       	in	r0, 0x3f	; 63
     4e0:	f8 94       	cli
     4e2:	de bf       	out	0x3e, r29	; 62
     4e4:	0f be       	out	0x3f, r0	; 63
     4e6:	cd bf       	out	0x3d, r28	; 61
     4e8:	64 b1       	in	r22, 0x04	; 4
     4ea:	75 b1       	in	r23, 0x05	; 5
     4ec:	80 e0       	ldi	r24, 0x00	; 0
     4ee:	90 e0       	ldi	r25, 0x00	; 0
     4f0:	0e 94 50 08 	call	0x10a0	; 0x10a0 <__floatunsisf>
     4f4:	22 e5       	ldi	r18, 0x52	; 82
     4f6:	37 e2       	ldi	r19, 0x27	; 39
     4f8:	40 ea       	ldi	r20, 0xA0	; 160
     4fa:	5b e3       	ldi	r21, 0x3B	; 59
     4fc:	0e 94 49 06 	call	0xc92	; 0xc92 <__mulsf3>
     500:	2d ec       	ldi	r18, 0xCD	; 205
     502:	3c ec       	ldi	r19, 0xCC	; 204
     504:	4c ec       	ldi	r20, 0xCC	; 204
     506:	5e e3       	ldi	r21, 0x3E	; 62
     508:	0e 94 eb 05 	call	0xbd6	; 0xbd6 <__subsf3>
     50c:	27 e7       	ldi	r18, 0x77	; 119
     50e:	3e eb       	ldi	r19, 0xBE	; 190
     510:	4f e9       	ldi	r20, 0x9F	; 159
     512:	5c e3       	ldi	r21, 0x3C	; 60
     514:	0e 94 48 07 	call	0xe90	; 0xe90 <__divsf3>
     518:	20 e0       	ldi	r18, 0x00	; 0
     51a:	30 e0       	ldi	r19, 0x00	; 0
     51c:	48 ec       	ldi	r20, 0xC8	; 200
     51e:	52 e4       	ldi	r21, 0x42	; 66
     520:	0e 94 49 06 	call	0xc92	; 0xc92 <__mulsf3>
     524:	0e 94 fd 07 	call	0xffa	; 0xffa <__fixsfsi>
     528:	7e 8b       	std	Y+22, r23	; 0x16
     52a:	6d 8b       	std	Y+21, r22	; 0x15
     52c:	8d 85       	ldd	r24, Y+13	; 0x0d
     52e:	9e 85       	ldd	r25, Y+14	; 0x0e
     530:	2b 85       	ldd	r18, Y+11	; 0x0b
     532:	3c 85       	ldd	r19, Y+12	; 0x0c
     534:	82 0f       	add	r24, r18
     536:	93 1f       	adc	r25, r19
     538:	2f 85       	ldd	r18, Y+15	; 0x0f
     53a:	38 89       	ldd	r19, Y+16	; 0x10
     53c:	82 0f       	add	r24, r18
     53e:	93 1f       	adc	r25, r19
     540:	29 89       	ldd	r18, Y+17	; 0x11
     542:	3a 89       	ldd	r19, Y+18	; 0x12
     544:	82 0f       	add	r24, r18
     546:	93 1f       	adc	r25, r19
     548:	2b 89       	ldd	r18, Y+19	; 0x13
     54a:	3c 89       	ldd	r19, Y+20	; 0x14
     54c:	82 0f       	add	r24, r18
     54e:	93 1f       	adc	r25, r19
     550:	65 e0       	ldi	r22, 0x05	; 5
     552:	70 e0       	ldi	r23, 0x00	; 0
     554:	0e 94 59 0d 	call	0x1ab2	; 0x1ab2 <__divmodhi4>
     558:	9b 01       	movw	r18, r22
     55a:	cb 01       	movw	r24, r22
     55c:	64 e6       	ldi	r22, 0x64	; 100
     55e:	70 e0       	ldi	r23, 0x00	; 0
     560:	0e 94 59 0d 	call	0x1ab2	; 0x1ab2 <__divmodhi4>
     564:	9f 93       	push	r25
     566:	8f 93       	push	r24
     568:	c9 01       	movw	r24, r18
     56a:	64 e6       	ldi	r22, 0x64	; 100
     56c:	70 e0       	ldi	r23, 0x00	; 0
     56e:	0e 94 59 0d 	call	0x1ab2	; 0x1ab2 <__divmodhi4>
     572:	7f 93       	push	r23
     574:	6f 93       	push	r22
     576:	80 e7       	ldi	r24, 0x70	; 112
     578:	90 e0       	ldi	r25, 0x00	; 0
     57a:	9f 93       	push	r25
     57c:	8f 93       	push	r24
     57e:	8e 01       	movw	r16, r28
     580:	0f 5f       	subi	r16, 0xFF	; 255
     582:	1f 4f       	sbci	r17, 0xFF	; 255
     584:	1f 93       	push	r17
     586:	0f 93       	push	r16
     588:	0e 94 8c 0a 	call	0x1518	; 0x1518 <sprintf>
     58c:	61 e0       	ldi	r22, 0x01	; 1
     58e:	70 e0       	ldi	r23, 0x00	; 0
     590:	8d e0       	ldi	r24, 0x0D	; 13
     592:	90 e0       	ldi	r25, 0x00	; 0
     594:	0e 94 ec 00 	call	0x1d8	; 0x1d8 <LCD_goto>
     598:	c8 01       	movw	r24, r16
     59a:	0e 94 d2 00 	call	0x1a4	; 0x1a4 <LCD_str>
     59e:	8d b7       	in	r24, 0x3d	; 61
     5a0:	9e b7       	in	r25, 0x3e	; 62
     5a2:	08 96       	adiw	r24, 0x08	; 8
     5a4:	0f b6       	in	r0, 0x3f	; 63
     5a6:	f8 94       	cli
     5a8:	9e bf       	out	0x3e, r25	; 62
     5aa:	0f be       	out	0x3f, r0	; 63
     5ac:	8d bf       	out	0x3d, r24	; 61
     5ae:	64 96       	adiw	r28, 0x14	; 20
     5b0:	0f b6       	in	r0, 0x3f	; 63
     5b2:	f8 94       	cli
     5b4:	de bf       	out	0x3e, r29	; 62
     5b6:	0f be       	out	0x3f, r0	; 63
     5b8:	cd bf       	out	0x3d, r28	; 61
     5ba:	df 91       	pop	r29
     5bc:	cf 91       	pop	r28
     5be:	1f 91       	pop	r17
     5c0:	0f 91       	pop	r16
     5c2:	08 95       	ret

000005c4 <potentiometer>:
     5c4:	cf 93       	push	r28
     5c6:	df 93       	push	r29
     5c8:	cd b7       	in	r28, 0x3d	; 61
     5ca:	de b7       	in	r29, 0x3e	; 62
     5cc:	aa 97       	sbiw	r28, 0x2a	; 42
     5ce:	0f b6       	in	r0, 0x3f	; 63
     5d0:	f8 94       	cli
     5d2:	de bf       	out	0x3e, r29	; 62
     5d4:	0f be       	out	0x3f, r0	; 63
     5d6:	cd bf       	out	0x3d, r28	; 61
     5d8:	de 01       	movw	r26, r28
     5da:	11 96       	adiw	r26, 0x01	; 1
     5dc:	ea e7       	ldi	r30, 0x7A	; 122
     5de:	f0 e0       	ldi	r31, 0x00	; 0
     5e0:	8a e2       	ldi	r24, 0x2A	; 42
     5e2:	01 90       	ld	r0, Z+
     5e4:	0d 92       	st	X+, r0
     5e6:	81 50       	subi	r24, 0x01	; 1
     5e8:	e1 f7       	brne	.-8      	; 0x5e2 <potentiometer+0x1e>
     5ea:	20 e0       	ldi	r18, 0x00	; 0
     5ec:	30 e0       	ldi	r19, 0x00	; 0
     5ee:	ae 01       	movw	r20, r28
     5f0:	4f 5f       	subi	r20, 0xFF	; 255
     5f2:	5f 4f       	sbci	r21, 0xFF	; 255
     5f4:	88 b3       	in	r24, 0x18	; 24
     5f6:	8a 7f       	andi	r24, 0xFA	; 250
     5f8:	88 bb       	out	0x18, r24	; 24
     5fa:	81 e1       	ldi	r24, 0x11	; 17
     5fc:	8f b9       	out	0x0f, r24	; 15
     5fe:	77 9b       	sbis	0x0e, 7	; 14
     600:	fe cf       	rjmp	.-4      	; 0x5fe <potentiometer+0x3a>
     602:	f9 01       	movw	r30, r18
     604:	ee 0f       	add	r30, r30
     606:	ff 1f       	adc	r31, r31
     608:	e4 0f       	add	r30, r20
     60a:	f5 1f       	adc	r31, r21
     60c:	80 81       	ld	r24, Z
     60e:	8f b9       	out	0x0f, r24	; 15
     610:	77 9b       	sbis	0x0e, 7	; 14
     612:	fe cf       	rjmp	.-4      	; 0x610 <potentiometer+0x4c>
     614:	88 b3       	in	r24, 0x18	; 24
     616:	85 60       	ori	r24, 0x05	; 5
     618:	88 bb       	out	0x18, r24	; 24
     61a:	80 e2       	ldi	r24, 0x20	; 32
     61c:	9e e4       	ldi	r25, 0x4E	; 78
     61e:	01 97       	sbiw	r24, 0x01	; 1
     620:	f1 f7       	brne	.-4      	; 0x61e <potentiometer+0x5a>
     622:	2f 5f       	subi	r18, 0xFF	; 255
     624:	3f 4f       	sbci	r19, 0xFF	; 255
     626:	24 31       	cpi	r18, 0x14	; 20
     628:	31 05       	cpc	r19, r1
     62a:	24 f3       	brlt	.-56     	; 0x5f4 <potentiometer+0x30>
     62c:	20 e0       	ldi	r18, 0x00	; 0
     62e:	30 e0       	ldi	r19, 0x00	; 0
     630:	e1 cf       	rjmp	.-62     	; 0x5f4 <potentiometer+0x30>

00000632 <pwm_init>:
     632:	cf 93       	push	r28
     634:	df 93       	push	r29
     636:	cd b7       	in	r28, 0x3d	; 61
     638:	de b7       	in	r29, 0x3e	; 62
     63a:	aa 97       	sbiw	r28, 0x2a	; 42
     63c:	0f b6       	in	r0, 0x3f	; 63
     63e:	f8 94       	cli
     640:	de bf       	out	0x3e, r29	; 62
     642:	0f be       	out	0x3f, r0	; 63
     644:	cd bf       	out	0x3d, r28	; 61
     646:	bb 9a       	sbi	0x17, 3	; 23
     648:	89 e6       	ldi	r24, 0x69	; 105
     64a:	83 bf       	out	0x33, r24	; 51
     64c:	de 01       	movw	r26, r28
     64e:	11 96       	adiw	r26, 0x01	; 1
     650:	e4 ea       	ldi	r30, 0xA4	; 164
     652:	f0 e0       	ldi	r31, 0x00	; 0
     654:	8a e2       	ldi	r24, 0x2A	; 42
     656:	01 90       	ld	r0, Z+
     658:	0d 92       	st	X+, r0
     65a:	81 50       	subi	r24, 0x01	; 1
     65c:	e1 f7       	brne	.-8      	; 0x656 <pwm_init+0x24>
     65e:	20 e0       	ldi	r18, 0x00	; 0
     660:	30 e0       	ldi	r19, 0x00	; 0
     662:	ae 01       	movw	r20, r28
     664:	4f 5f       	subi	r20, 0xFF	; 255
     666:	5f 4f       	sbci	r21, 0xFF	; 255
     668:	f9 01       	movw	r30, r18
     66a:	ee 0f       	add	r30, r30
     66c:	ff 1f       	adc	r31, r31
     66e:	e4 0f       	add	r30, r20
     670:	f5 1f       	adc	r31, r21
     672:	80 81       	ld	r24, Z
     674:	8c bf       	out	0x3c, r24	; 60
     676:	80 e2       	ldi	r24, 0x20	; 32
     678:	9e e4       	ldi	r25, 0x4E	; 78
     67a:	01 97       	sbiw	r24, 0x01	; 1
     67c:	f1 f7       	brne	.-4      	; 0x67a <pwm_init+0x48>
     67e:	2f 5f       	subi	r18, 0xFF	; 255
     680:	3f 4f       	sbci	r19, 0xFF	; 255
     682:	24 31       	cpi	r18, 0x14	; 20
     684:	31 05       	cpc	r19, r1
     686:	84 f3       	brlt	.-32     	; 0x668 <pwm_init+0x36>
     688:	20 e0       	ldi	r18, 0x00	; 0
     68a:	30 e0       	ldi	r19, 0x00	; 0
     68c:	ed cf       	rjmp	.-38     	; 0x668 <pwm_init+0x36>

0000068e <potent_init>:
     68e:	87 b3       	in	r24, 0x17	; 23
     690:	88 6f       	ori	r24, 0xF8	; 248
     692:	87 bb       	out	0x17, r24	; 23
     694:	83 e5       	ldi	r24, 0x53	; 83
     696:	8d b9       	out	0x0d, r24	; 13
     698:	70 98       	cbi	0x0e, 0	; 14
     69a:	80 e4       	ldi	r24, 0x40	; 64
     69c:	9c e9       	ldi	r25, 0x9C	; 156
     69e:	01 97       	sbiw	r24, 0x01	; 1
     6a0:	f1 f7       	brne	.-4      	; 0x69e <potent_init+0x10>
     6a2:	08 95       	ret

000006a4 <timer1_init>:
     6a4:	8e b5       	in	r24, 0x2e	; 46
     6a6:	8b 60       	ori	r24, 0x0B	; 11
     6a8:	8e bd       	out	0x2e, r24	; 46
     6aa:	1d bc       	out	0x2d, r1	; 45
     6ac:	1c bc       	out	0x2c, r1	; 44
     6ae:	8a ef       	ldi	r24, 0xFA	; 250
     6b0:	90 e0       	ldi	r25, 0x00	; 0
     6b2:	9b bd       	out	0x2b, r25	; 43
     6b4:	8a bd       	out	0x2a, r24	; 42
     6b6:	89 b7       	in	r24, 0x39	; 57
     6b8:	80 61       	ori	r24, 0x10	; 16
     6ba:	89 bf       	out	0x39, r24	; 57
     6bc:	78 94       	sei
     6be:	08 95       	ret

000006c0 <__vector_7>:
     6c0:	1f 92       	push	r1
     6c2:	0f 92       	push	r0
     6c4:	0f b6       	in	r0, 0x3f	; 63
     6c6:	0f 92       	push	r0
     6c8:	11 24       	eor	r1, r1
     6ca:	2f 93       	push	r18
     6cc:	8f 93       	push	r24
     6ce:	9f 93       	push	r25
     6d0:	80 91 f8 01 	lds	r24, 0x01F8
     6d4:	90 91 f9 01 	lds	r25, 0x01F9
     6d8:	01 97       	sbiw	r24, 0x01	; 1
     6da:	90 93 f9 01 	sts	0x01F9, r25
     6de:	80 93 f8 01 	sts	0x01F8, r24
     6e2:	8f 5f       	subi	r24, 0xFF	; 255
     6e4:	9f 4f       	sbci	r25, 0xFF	; 255
     6e6:	61 f4       	brne	.+24     	; 0x700 <__vector_7+0x40>
     6e8:	88 ee       	ldi	r24, 0xE8	; 232
     6ea:	93 e0       	ldi	r25, 0x03	; 3
     6ec:	90 93 f9 01 	sts	0x01F9, r25
     6f0:	80 93 f8 01 	sts	0x01F8, r24
     6f4:	81 e0       	ldi	r24, 0x01	; 1
     6f6:	90 e0       	ldi	r25, 0x00	; 0
     6f8:	90 93 fd 01 	sts	0x01FD, r25
     6fc:	80 93 fc 01 	sts	0x01FC, r24
     700:	80 91 02 02 	lds	r24, 0x0202
     704:	90 91 03 02 	lds	r25, 0x0203
     708:	01 97       	sbiw	r24, 0x01	; 1
     70a:	90 93 03 02 	sts	0x0203, r25
     70e:	80 93 02 02 	sts	0x0202, r24
     712:	8f 5f       	subi	r24, 0xFF	; 255
     714:	9f 4f       	sbci	r25, 0xFF	; 255
     716:	61 f4       	brne	.+24     	; 0x730 <__vector_7+0x70>
     718:	88 ec       	ldi	r24, 0xC8	; 200
     71a:	90 e0       	ldi	r25, 0x00	; 0
     71c:	90 93 03 02 	sts	0x0203, r25
     720:	80 93 02 02 	sts	0x0202, r24
     724:	81 e0       	ldi	r24, 0x01	; 1
     726:	90 e0       	ldi	r25, 0x00	; 0
     728:	90 93 f5 01 	sts	0x01F5, r25
     72c:	80 93 f4 01 	sts	0x01F4, r24
     730:	80 91 fa 01 	lds	r24, 0x01FA
     734:	90 91 fb 01 	lds	r25, 0x01FB
     738:	01 97       	sbiw	r24, 0x01	; 1
     73a:	90 93 fb 01 	sts	0x01FB, r25
     73e:	80 93 fa 01 	sts	0x01FA, r24
     742:	8f 5f       	subi	r24, 0xFF	; 255
     744:	9f 4f       	sbci	r25, 0xFF	; 255
     746:	61 f4       	brne	.+24     	; 0x760 <__vector_7+0xa0>
     748:	84 ef       	ldi	r24, 0xF4	; 244
     74a:	91 e0       	ldi	r25, 0x01	; 1
     74c:	90 93 fb 01 	sts	0x01FB, r25
     750:	80 93 fa 01 	sts	0x01FA, r24
     754:	81 e0       	ldi	r24, 0x01	; 1
     756:	90 e0       	ldi	r25, 0x00	; 0
     758:	90 93 01 02 	sts	0x0201, r25
     75c:	80 93 00 02 	sts	0x0200, r24
     760:	80 91 f6 01 	lds	r24, 0x01F6
     764:	90 91 f7 01 	lds	r25, 0x01F7
     768:	01 97       	sbiw	r24, 0x01	; 1
     76a:	90 93 f7 01 	sts	0x01F7, r25
     76e:	80 93 f6 01 	sts	0x01F6, r24
     772:	8f 5f       	subi	r24, 0xFF	; 255
     774:	9f 4f       	sbci	r25, 0xFF	; 255
     776:	61 f4       	brne	.+24     	; 0x790 <__vector_7+0xd0>
     778:	84 e1       	ldi	r24, 0x14	; 20
     77a:	90 e0       	ldi	r25, 0x00	; 0
     77c:	90 93 f7 01 	sts	0x01F7, r25
     780:	80 93 f6 01 	sts	0x01F6, r24
     784:	81 e0       	ldi	r24, 0x01	; 1
     786:	90 e0       	ldi	r25, 0x00	; 0
     788:	90 93 ff 01 	sts	0x01FF, r25
     78c:	80 93 fe 01 	sts	0x01FE, r24
     790:	80 91 f2 01 	lds	r24, 0x01F2
     794:	90 91 f3 01 	lds	r25, 0x01F3
     798:	01 97       	sbiw	r24, 0x01	; 1
     79a:	90 93 f3 01 	sts	0x01F3, r25
     79e:	80 93 f2 01 	sts	0x01F2, r24
     7a2:	8f 5f       	subi	r24, 0xFF	; 255
     7a4:	9f 4f       	sbci	r25, 0xFF	; 255
     7a6:	61 f4       	brne	.+24     	; 0x7c0 <__vector_7+0x100>
     7a8:	84 e1       	ldi	r24, 0x14	; 20
     7aa:	90 e0       	ldi	r25, 0x00	; 0
     7ac:	90 93 f3 01 	sts	0x01F3, r25
     7b0:	80 93 f2 01 	sts	0x01F2, r24
     7b4:	81 e0       	ldi	r24, 0x01	; 1
     7b6:	90 e0       	ldi	r25, 0x00	; 0
     7b8:	90 93 f1 01 	sts	0x01F1, r25
     7bc:	80 93 f0 01 	sts	0x01F0, r24
     7c0:	9f 91       	pop	r25
     7c2:	8f 91       	pop	r24
     7c4:	2f 91       	pop	r18
     7c6:	0f 90       	pop	r0
     7c8:	0f be       	out	0x3f, r0	; 63
     7ca:	0f 90       	pop	r0
     7cc:	1f 90       	pop	r1
     7ce:	18 95       	reti

000007d0 <clock>:
     7d0:	ef 92       	push	r14
     7d2:	ff 92       	push	r15
     7d4:	0f 93       	push	r16
     7d6:	1f 93       	push	r17
     7d8:	cf 93       	push	r28
     7da:	df 93       	push	r29
     7dc:	cd b7       	in	r28, 0x3d	; 61
     7de:	de b7       	in	r29, 0x3e	; 62
     7e0:	22 97       	sbiw	r28, 0x02	; 2
     7e2:	0f b6       	in	r0, 0x3f	; 63
     7e4:	f8 94       	cli
     7e6:	de bf       	out	0x3e, r29	; 62
     7e8:	0f be       	out	0x3f, r0	; 63
     7ea:	cd bf       	out	0x3d, r28	; 61
     7ec:	61 e0       	ldi	r22, 0x01	; 1
     7ee:	70 e0       	ldi	r23, 0x00	; 0
     7f0:	81 e0       	ldi	r24, 0x01	; 1
     7f2:	90 e0       	ldi	r25, 0x00	; 0
     7f4:	0e 94 ec 00 	call	0x1d8	; 0x1d8 <LCD_goto>
     7f8:	80 91 06 02 	lds	r24, 0x0206
     7fc:	90 e0       	ldi	r25, 0x00	; 0
     7fe:	9f 93       	push	r25
     800:	8f 93       	push	r24
     802:	8e ec       	ldi	r24, 0xCE	; 206
     804:	e8 2e       	mov	r14, r24
     806:	80 e0       	ldi	r24, 0x00	; 0
     808:	f8 2e       	mov	r15, r24
     80a:	ff 92       	push	r15
     80c:	ef 92       	push	r14
     80e:	8e 01       	movw	r16, r28
     810:	0f 5f       	subi	r16, 0xFF	; 255
     812:	1f 4f       	sbci	r17, 0xFF	; 255
     814:	1f 93       	push	r17
     816:	0f 93       	push	r16
     818:	0e 94 8c 0a 	call	0x1518	; 0x1518 <sprintf>
     81c:	c8 01       	movw	r24, r16
     81e:	0e 94 d2 00 	call	0x1a4	; 0x1a4 <LCD_str>
     822:	61 e0       	ldi	r22, 0x01	; 1
     824:	70 e0       	ldi	r23, 0x00	; 0
     826:	84 e0       	ldi	r24, 0x04	; 4
     828:	90 e0       	ldi	r25, 0x00	; 0
     82a:	0e 94 ec 00 	call	0x1d8	; 0x1d8 <LCD_goto>
     82e:	80 91 05 02 	lds	r24, 0x0205
     832:	90 e0       	ldi	r25, 0x00	; 0
     834:	9f 93       	push	r25
     836:	8f 93       	push	r24
     838:	ff 92       	push	r15
     83a:	ef 92       	push	r14
     83c:	1f 93       	push	r17
     83e:	0f 93       	push	r16
     840:	0e 94 8c 0a 	call	0x1518	; 0x1518 <sprintf>
     844:	c8 01       	movw	r24, r16
     846:	0e 94 d2 00 	call	0x1a4	; 0x1a4 <LCD_str>
     84a:	61 e0       	ldi	r22, 0x01	; 1
     84c:	70 e0       	ldi	r23, 0x00	; 0
     84e:	87 e0       	ldi	r24, 0x07	; 7
     850:	90 e0       	ldi	r25, 0x00	; 0
     852:	0e 94 ec 00 	call	0x1d8	; 0x1d8 <LCD_goto>
     856:	80 91 04 02 	lds	r24, 0x0204
     85a:	90 e0       	ldi	r25, 0x00	; 0
     85c:	9f 93       	push	r25
     85e:	8f 93       	push	r24
     860:	ff 92       	push	r15
     862:	ef 92       	push	r14
     864:	1f 93       	push	r17
     866:	0f 93       	push	r16
     868:	0e 94 8c 0a 	call	0x1518	; 0x1518 <sprintf>
     86c:	c8 01       	movw	r24, r16
     86e:	0e 94 d2 00 	call	0x1a4	; 0x1a4 <LCD_str>
     872:	80 91 04 02 	lds	r24, 0x0204
     876:	8f 5f       	subi	r24, 0xFF	; 255
     878:	80 93 04 02 	sts	0x0204, r24
     87c:	2d b7       	in	r18, 0x3d	; 61
     87e:	3e b7       	in	r19, 0x3e	; 62
     880:	2e 5e       	subi	r18, 0xEE	; 238
     882:	3f 4f       	sbci	r19, 0xFF	; 255
     884:	0f b6       	in	r0, 0x3f	; 63
     886:	f8 94       	cli
     888:	3e bf       	out	0x3e, r19	; 62
     88a:	0f be       	out	0x3f, r0	; 63
     88c:	2d bf       	out	0x3d, r18	; 61
     88e:	8c 33       	cpi	r24, 0x3C	; 60
     890:	39 f4       	brne	.+14     	; 0x8a0 <__stack+0x41>
     892:	10 92 04 02 	sts	0x0204, r1
     896:	80 91 05 02 	lds	r24, 0x0205
     89a:	8f 5f       	subi	r24, 0xFF	; 255
     89c:	80 93 05 02 	sts	0x0205, r24
     8a0:	80 91 05 02 	lds	r24, 0x0205
     8a4:	8c 33       	cpi	r24, 0x3C	; 60
     8a6:	39 f4       	brne	.+14     	; 0x8b6 <__stack+0x57>
     8a8:	10 92 05 02 	sts	0x0205, r1
     8ac:	80 91 06 02 	lds	r24, 0x0206
     8b0:	8f 5f       	subi	r24, 0xFF	; 255
     8b2:	80 93 06 02 	sts	0x0206, r24
     8b6:	80 91 06 02 	lds	r24, 0x0206
     8ba:	88 31       	cpi	r24, 0x18	; 24
     8bc:	11 f4       	brne	.+4      	; 0x8c2 <__stack+0x63>
     8be:	10 92 06 02 	sts	0x0206, r1
     8c2:	22 96       	adiw	r28, 0x02	; 2
     8c4:	0f b6       	in	r0, 0x3f	; 63
     8c6:	f8 94       	cli
     8c8:	de bf       	out	0x3e, r29	; 62
     8ca:	0f be       	out	0x3f, r0	; 63
     8cc:	cd bf       	out	0x3d, r28	; 61
     8ce:	df 91       	pop	r29
     8d0:	cf 91       	pop	r28
     8d2:	1f 91       	pop	r17
     8d4:	0f 91       	pop	r16
     8d6:	ff 90       	pop	r15
     8d8:	ef 90       	pop	r14
     8da:	08 95       	ret

000008dc <fixed_text>:
     8dc:	0f 93       	push	r16
     8de:	1f 93       	push	r17
     8e0:	61 e0       	ldi	r22, 0x01	; 1
     8e2:	70 e0       	ldi	r23, 0x00	; 0
     8e4:	83 e0       	ldi	r24, 0x03	; 3
     8e6:	90 e0       	ldi	r25, 0x00	; 0
     8e8:	0e 94 ec 00 	call	0x1d8	; 0x1d8 <LCD_goto>
     8ec:	03 ed       	ldi	r16, 0xD3	; 211
     8ee:	10 e0       	ldi	r17, 0x00	; 0
     8f0:	c8 01       	movw	r24, r16
     8f2:	0e 94 d2 00 	call	0x1a4	; 0x1a4 <LCD_str>
     8f6:	61 e0       	ldi	r22, 0x01	; 1
     8f8:	70 e0       	ldi	r23, 0x00	; 0
     8fa:	86 e0       	ldi	r24, 0x06	; 6
     8fc:	90 e0       	ldi	r25, 0x00	; 0
     8fe:	0e 94 ec 00 	call	0x1d8	; 0x1d8 <LCD_goto>
     902:	c8 01       	movw	r24, r16
     904:	0e 94 d2 00 	call	0x1a4	; 0x1a4 <LCD_str>
     908:	61 e0       	ldi	r22, 0x01	; 1
     90a:	70 e0       	ldi	r23, 0x00	; 0
     90c:	8b e0       	ldi	r24, 0x0B	; 11
     90e:	90 e0       	ldi	r25, 0x00	; 0
     910:	0e 94 ec 00 	call	0x1d8	; 0x1d8 <LCD_goto>
     914:	85 ed       	ldi	r24, 0xD5	; 213
     916:	90 e0       	ldi	r25, 0x00	; 0
     918:	0e 94 d2 00 	call	0x1a4	; 0x1a4 <LCD_str>
     91c:	61 e0       	ldi	r22, 0x01	; 1
     91e:	70 e0       	ldi	r23, 0x00	; 0
     920:	8f e0       	ldi	r24, 0x0F	; 15
     922:	90 e0       	ldi	r25, 0x00	; 0
     924:	0e 94 ec 00 	call	0x1d8	; 0x1d8 <LCD_goto>
     928:	88 ed       	ldi	r24, 0xD8	; 216
     92a:	90 e0       	ldi	r25, 0x00	; 0
     92c:	0e 94 d2 00 	call	0x1a4	; 0x1a4 <LCD_str>
     930:	62 e0       	ldi	r22, 0x02	; 2
     932:	70 e0       	ldi	r23, 0x00	; 0
     934:	81 e0       	ldi	r24, 0x01	; 1
     936:	90 e0       	ldi	r25, 0x00	; 0
     938:	0e 94 ec 00 	call	0x1d8	; 0x1d8 <LCD_goto>
     93c:	8a ed       	ldi	r24, 0xDA	; 218
     93e:	90 e0       	ldi	r25, 0x00	; 0
     940:	0e 94 d2 00 	call	0x1a4	; 0x1a4 <LCD_str>
     944:	1f 91       	pop	r17
     946:	0f 91       	pop	r16
     948:	08 95       	ret

0000094a <_fpadd_parts>:
     94a:	a0 e0       	ldi	r26, 0x00	; 0
     94c:	b0 e0       	ldi	r27, 0x00	; 0
     94e:	eb ea       	ldi	r30, 0xAB	; 171
     950:	f4 e0       	ldi	r31, 0x04	; 4
     952:	0c 94 82 0d 	jmp	0x1b04	; 0x1b04 <__prologue_saves__+0x4>
     956:	2c 01       	movw	r4, r24
     958:	5b 01       	movw	r10, r22
     95a:	fa 01       	movw	r30, r20
     95c:	dc 01       	movw	r26, r24
     95e:	9c 91       	ld	r25, X
     960:	92 30       	cpi	r25, 0x02	; 2
     962:	08 f4       	brcc	.+2      	; 0x966 <_fpadd_parts+0x1c>
     964:	32 c1       	rjmp	.+612    	; 0xbca <_fpadd_parts+0x280>
     966:	eb 01       	movw	r28, r22
     968:	88 81       	ld	r24, Y
     96a:	82 30       	cpi	r24, 0x02	; 2
     96c:	08 f4       	brcc	.+2      	; 0x970 <_fpadd_parts+0x26>
     96e:	2c c1       	rjmp	.+600    	; 0xbc8 <_fpadd_parts+0x27e>
     970:	94 30       	cpi	r25, 0x04	; 4
     972:	71 f4       	brne	.+28     	; 0x990 <_fpadd_parts+0x46>
     974:	84 30       	cpi	r24, 0x04	; 4
     976:	09 f0       	breq	.+2      	; 0x97a <_fpadd_parts+0x30>
     978:	28 c1       	rjmp	.+592    	; 0xbca <_fpadd_parts+0x280>
     97a:	f2 01       	movw	r30, r4
     97c:	91 81       	ldd	r25, Z+1	; 0x01
     97e:	89 81       	ldd	r24, Y+1	; 0x01
     980:	98 17       	cp	r25, r24
     982:	09 f4       	brne	.+2      	; 0x986 <_fpadd_parts+0x3c>
     984:	22 c1       	rjmp	.+580    	; 0xbca <_fpadd_parts+0x280>
     986:	1f ed       	ldi	r17, 0xDF	; 223
     988:	41 2e       	mov	r4, r17
     98a:	10 e0       	ldi	r17, 0x00	; 0
     98c:	51 2e       	mov	r5, r17
     98e:	1d c1       	rjmp	.+570    	; 0xbca <_fpadd_parts+0x280>
     990:	84 30       	cpi	r24, 0x04	; 4
     992:	09 f4       	brne	.+2      	; 0x996 <_fpadd_parts+0x4c>
     994:	19 c1       	rjmp	.+562    	; 0xbc8 <_fpadd_parts+0x27e>
     996:	82 30       	cpi	r24, 0x02	; 2
     998:	a9 f4       	brne	.+42     	; 0x9c4 <_fpadd_parts+0x7a>
     99a:	92 30       	cpi	r25, 0x02	; 2
     99c:	09 f0       	breq	.+2      	; 0x9a0 <_fpadd_parts+0x56>
     99e:	15 c1       	rjmp	.+554    	; 0xbca <_fpadd_parts+0x280>
     9a0:	ca 01       	movw	r24, r20
     9a2:	a2 01       	movw	r20, r4
     9a4:	28 e0       	ldi	r18, 0x08	; 8
     9a6:	da 01       	movw	r26, r20
     9a8:	0d 90       	ld	r0, X+
     9aa:	ad 01       	movw	r20, r26
     9ac:	ec 01       	movw	r28, r24
     9ae:	09 92       	st	Y+, r0
     9b0:	ce 01       	movw	r24, r28
     9b2:	21 50       	subi	r18, 0x01	; 1
     9b4:	c1 f7       	brne	.-16     	; 0x9a6 <_fpadd_parts+0x5c>
     9b6:	e5 01       	movw	r28, r10
     9b8:	89 81       	ldd	r24, Y+1	; 0x01
     9ba:	e2 01       	movw	r28, r4
     9bc:	99 81       	ldd	r25, Y+1	; 0x01
     9be:	89 23       	and	r24, r25
     9c0:	81 83       	std	Z+1, r24	; 0x01
     9c2:	00 c1       	rjmp	.+512    	; 0xbc4 <_fpadd_parts+0x27a>
     9c4:	92 30       	cpi	r25, 0x02	; 2
     9c6:	09 f4       	brne	.+2      	; 0x9ca <_fpadd_parts+0x80>
     9c8:	ff c0       	rjmp	.+510    	; 0xbc8 <_fpadd_parts+0x27e>
     9ca:	e2 01       	movw	r28, r4
     9cc:	ca 80       	ldd	r12, Y+2	; 0x02
     9ce:	db 80       	ldd	r13, Y+3	; 0x03
     9d0:	eb 01       	movw	r28, r22
     9d2:	8a 81       	ldd	r24, Y+2	; 0x02
     9d4:	9b 81       	ldd	r25, Y+3	; 0x03
     9d6:	e2 01       	movw	r28, r4
     9d8:	2c 81       	ldd	r18, Y+4	; 0x04
     9da:	3d 81       	ldd	r19, Y+5	; 0x05
     9dc:	4e 81       	ldd	r20, Y+6	; 0x06
     9de:	5f 81       	ldd	r21, Y+7	; 0x07
     9e0:	eb 01       	movw	r28, r22
     9e2:	ec 80       	ldd	r14, Y+4	; 0x04
     9e4:	fd 80       	ldd	r15, Y+5	; 0x05
     9e6:	0e 81       	ldd	r16, Y+6	; 0x06
     9e8:	1f 81       	ldd	r17, Y+7	; 0x07
     9ea:	b6 01       	movw	r22, r12
     9ec:	68 1b       	sub	r22, r24
     9ee:	79 0b       	sbc	r23, r25
     9f0:	db 01       	movw	r26, r22
     9f2:	77 ff       	sbrs	r23, 7
     9f4:	03 c0       	rjmp	.+6      	; 0x9fc <_fpadd_parts+0xb2>
     9f6:	70 95       	com	r23
     9f8:	61 95       	neg	r22
     9fa:	7f 4f       	sbci	r23, 0xFF	; 255
     9fc:	60 32       	cpi	r22, 0x20	; 32
     9fe:	71 05       	cpc	r23, r1
     a00:	0c f0       	brlt	.+2      	; 0xa04 <_fpadd_parts+0xba>
     a02:	5d c0       	rjmp	.+186    	; 0xabe <_fpadd_parts+0x174>
     a04:	1a 16       	cp	r1, r26
     a06:	1b 06       	cpc	r1, r27
     a08:	5c f5       	brge	.+86     	; 0xa60 <_fpadd_parts+0x116>
     a0a:	66 24       	eor	r6, r6
     a0c:	77 24       	eor	r7, r7
     a0e:	43 01       	movw	r8, r6
     a10:	81 e0       	ldi	r24, 0x01	; 1
     a12:	90 e0       	ldi	r25, 0x00	; 0
     a14:	a0 e0       	ldi	r26, 0x00	; 0
     a16:	b0 e0       	ldi	r27, 0x00	; 0
     a18:	06 2e       	mov	r0, r22
     a1a:	04 c0       	rjmp	.+8      	; 0xa24 <_fpadd_parts+0xda>
     a1c:	88 0f       	add	r24, r24
     a1e:	99 1f       	adc	r25, r25
     a20:	aa 1f       	adc	r26, r26
     a22:	bb 1f       	adc	r27, r27
     a24:	0a 94       	dec	r0
     a26:	d2 f7       	brpl	.-12     	; 0xa1c <_fpadd_parts+0xd2>
     a28:	01 97       	sbiw	r24, 0x01	; 1
     a2a:	a1 09       	sbc	r26, r1
     a2c:	b1 09       	sbc	r27, r1
     a2e:	8e 21       	and	r24, r14
     a30:	9f 21       	and	r25, r15
     a32:	a0 23       	and	r26, r16
     a34:	b1 23       	and	r27, r17
     a36:	00 97       	sbiw	r24, 0x00	; 0
     a38:	a1 05       	cpc	r26, r1
     a3a:	b1 05       	cpc	r27, r1
     a3c:	29 f0       	breq	.+10     	; 0xa48 <_fpadd_parts+0xfe>
     a3e:	b1 e0       	ldi	r27, 0x01	; 1
     a40:	6b 2e       	mov	r6, r27
     a42:	71 2c       	mov	r7, r1
     a44:	81 2c       	mov	r8, r1
     a46:	91 2c       	mov	r9, r1
     a48:	04 c0       	rjmp	.+8      	; 0xa52 <_fpadd_parts+0x108>
     a4a:	16 95       	lsr	r17
     a4c:	07 95       	ror	r16
     a4e:	f7 94       	ror	r15
     a50:	e7 94       	ror	r14
     a52:	6a 95       	dec	r22
     a54:	d2 f7       	brpl	.-12     	; 0xa4a <_fpadd_parts+0x100>
     a56:	e6 28       	or	r14, r6
     a58:	f7 28       	or	r15, r7
     a5a:	08 29       	or	r16, r8
     a5c:	19 29       	or	r17, r9
     a5e:	3b c0       	rjmp	.+118    	; 0xad6 <_fpadd_parts+0x18c>
     a60:	ab 2b       	or	r26, r27
     a62:	c9 f1       	breq	.+114    	; 0xad6 <_fpadd_parts+0x18c>
     a64:	c6 0e       	add	r12, r22
     a66:	d7 1e       	adc	r13, r23
     a68:	66 24       	eor	r6, r6
     a6a:	77 24       	eor	r7, r7
     a6c:	43 01       	movw	r8, r6
     a6e:	81 e0       	ldi	r24, 0x01	; 1
     a70:	90 e0       	ldi	r25, 0x00	; 0
     a72:	a0 e0       	ldi	r26, 0x00	; 0
     a74:	b0 e0       	ldi	r27, 0x00	; 0
     a76:	06 2e       	mov	r0, r22
     a78:	04 c0       	rjmp	.+8      	; 0xa82 <_fpadd_parts+0x138>
     a7a:	88 0f       	add	r24, r24
     a7c:	99 1f       	adc	r25, r25
     a7e:	aa 1f       	adc	r26, r26
     a80:	bb 1f       	adc	r27, r27
     a82:	0a 94       	dec	r0
     a84:	d2 f7       	brpl	.-12     	; 0xa7a <_fpadd_parts+0x130>
     a86:	01 97       	sbiw	r24, 0x01	; 1
     a88:	a1 09       	sbc	r26, r1
     a8a:	b1 09       	sbc	r27, r1
     a8c:	82 23       	and	r24, r18
     a8e:	93 23       	and	r25, r19
     a90:	a4 23       	and	r26, r20
     a92:	b5 23       	and	r27, r21
     a94:	00 97       	sbiw	r24, 0x00	; 0
     a96:	a1 05       	cpc	r26, r1
     a98:	b1 05       	cpc	r27, r1
     a9a:	29 f0       	breq	.+10     	; 0xaa6 <_fpadd_parts+0x15c>
     a9c:	a1 e0       	ldi	r26, 0x01	; 1
     a9e:	6a 2e       	mov	r6, r26
     aa0:	71 2c       	mov	r7, r1
     aa2:	81 2c       	mov	r8, r1
     aa4:	91 2c       	mov	r9, r1
     aa6:	04 c0       	rjmp	.+8      	; 0xab0 <_fpadd_parts+0x166>
     aa8:	56 95       	lsr	r21
     aaa:	47 95       	ror	r20
     aac:	37 95       	ror	r19
     aae:	27 95       	ror	r18
     ab0:	6a 95       	dec	r22
     ab2:	d2 f7       	brpl	.-12     	; 0xaa8 <_fpadd_parts+0x15e>
     ab4:	26 29       	or	r18, r6
     ab6:	37 29       	or	r19, r7
     ab8:	48 29       	or	r20, r8
     aba:	59 29       	or	r21, r9
     abc:	0c c0       	rjmp	.+24     	; 0xad6 <_fpadd_parts+0x18c>
     abe:	8c 15       	cp	r24, r12
     ac0:	9d 05       	cpc	r25, r13
     ac2:	34 f0       	brlt	.+12     	; 0xad0 <_fpadd_parts+0x186>
     ac4:	6c 01       	movw	r12, r24
     ac6:	20 e0       	ldi	r18, 0x00	; 0
     ac8:	30 e0       	ldi	r19, 0x00	; 0
     aca:	40 e0       	ldi	r20, 0x00	; 0
     acc:	50 e0       	ldi	r21, 0x00	; 0
     ace:	03 c0       	rjmp	.+6      	; 0xad6 <_fpadd_parts+0x18c>
     ad0:	ee 24       	eor	r14, r14
     ad2:	ff 24       	eor	r15, r15
     ad4:	87 01       	movw	r16, r14
     ad6:	e2 01       	movw	r28, r4
     ad8:	99 81       	ldd	r25, Y+1	; 0x01
     ada:	e5 01       	movw	r28, r10
     adc:	89 81       	ldd	r24, Y+1	; 0x01
     ade:	98 17       	cp	r25, r24
     ae0:	09 f4       	brne	.+2      	; 0xae4 <_fpadd_parts+0x19a>
     ae2:	43 c0       	rjmp	.+134    	; 0xb6a <_fpadd_parts+0x220>
     ae4:	99 23       	and	r25, r25
     ae6:	39 f0       	breq	.+14     	; 0xaf6 <_fpadd_parts+0x1ac>
     ae8:	e2 1a       	sub	r14, r18
     aea:	f3 0a       	sbc	r15, r19
     aec:	04 0b       	sbc	r16, r20
     aee:	15 0b       	sbc	r17, r21
     af0:	a8 01       	movw	r20, r16
     af2:	97 01       	movw	r18, r14
     af4:	04 c0       	rjmp	.+8      	; 0xafe <_fpadd_parts+0x1b4>
     af6:	2e 19       	sub	r18, r14
     af8:	3f 09       	sbc	r19, r15
     afa:	40 0b       	sbc	r20, r16
     afc:	51 0b       	sbc	r21, r17
     afe:	57 fd       	sbrc	r21, 7
     b00:	08 c0       	rjmp	.+16     	; 0xb12 <_fpadd_parts+0x1c8>
     b02:	11 82       	std	Z+1, r1	; 0x01
     b04:	d3 82       	std	Z+3, r13	; 0x03
     b06:	c2 82       	std	Z+2, r12	; 0x02
     b08:	24 83       	std	Z+4, r18	; 0x04
     b0a:	35 83       	std	Z+5, r19	; 0x05
     b0c:	46 83       	std	Z+6, r20	; 0x06
     b0e:	57 83       	std	Z+7, r21	; 0x07
     b10:	1d c0       	rjmp	.+58     	; 0xb4c <_fpadd_parts+0x202>
     b12:	81 e0       	ldi	r24, 0x01	; 1
     b14:	81 83       	std	Z+1, r24	; 0x01
     b16:	d3 82       	std	Z+3, r13	; 0x03
     b18:	c2 82       	std	Z+2, r12	; 0x02
     b1a:	88 27       	eor	r24, r24
     b1c:	99 27       	eor	r25, r25
     b1e:	dc 01       	movw	r26, r24
     b20:	82 1b       	sub	r24, r18
     b22:	93 0b       	sbc	r25, r19
     b24:	a4 0b       	sbc	r26, r20
     b26:	b5 0b       	sbc	r27, r21
     b28:	84 83       	std	Z+4, r24	; 0x04
     b2a:	95 83       	std	Z+5, r25	; 0x05
     b2c:	a6 83       	std	Z+6, r26	; 0x06
     b2e:	b7 83       	std	Z+7, r27	; 0x07
     b30:	0d c0       	rjmp	.+26     	; 0xb4c <_fpadd_parts+0x202>
     b32:	22 0f       	add	r18, r18
     b34:	33 1f       	adc	r19, r19
     b36:	44 1f       	adc	r20, r20
     b38:	55 1f       	adc	r21, r21
     b3a:	24 83       	std	Z+4, r18	; 0x04
     b3c:	35 83       	std	Z+5, r19	; 0x05
     b3e:	46 83       	std	Z+6, r20	; 0x06
     b40:	57 83       	std	Z+7, r21	; 0x07
     b42:	82 81       	ldd	r24, Z+2	; 0x02
     b44:	93 81       	ldd	r25, Z+3	; 0x03
     b46:	01 97       	sbiw	r24, 0x01	; 1
     b48:	93 83       	std	Z+3, r25	; 0x03
     b4a:	82 83       	std	Z+2, r24	; 0x02
     b4c:	24 81       	ldd	r18, Z+4	; 0x04
     b4e:	35 81       	ldd	r19, Z+5	; 0x05
     b50:	46 81       	ldd	r20, Z+6	; 0x06
     b52:	57 81       	ldd	r21, Z+7	; 0x07
     b54:	da 01       	movw	r26, r20
     b56:	c9 01       	movw	r24, r18
     b58:	01 97       	sbiw	r24, 0x01	; 1
     b5a:	a1 09       	sbc	r26, r1
     b5c:	b1 09       	sbc	r27, r1
     b5e:	8f 5f       	subi	r24, 0xFF	; 255
     b60:	9f 4f       	sbci	r25, 0xFF	; 255
     b62:	af 4f       	sbci	r26, 0xFF	; 255
     b64:	bf 43       	sbci	r27, 0x3F	; 63
     b66:	28 f3       	brcs	.-54     	; 0xb32 <_fpadd_parts+0x1e8>
     b68:	0b c0       	rjmp	.+22     	; 0xb80 <_fpadd_parts+0x236>
     b6a:	91 83       	std	Z+1, r25	; 0x01
     b6c:	d3 82       	std	Z+3, r13	; 0x03
     b6e:	c2 82       	std	Z+2, r12	; 0x02
     b70:	2e 0d       	add	r18, r14
     b72:	3f 1d       	adc	r19, r15
     b74:	40 1f       	adc	r20, r16
     b76:	51 1f       	adc	r21, r17
     b78:	24 83       	std	Z+4, r18	; 0x04
     b7a:	35 83       	std	Z+5, r19	; 0x05
     b7c:	46 83       	std	Z+6, r20	; 0x06
     b7e:	57 83       	std	Z+7, r21	; 0x07
     b80:	83 e0       	ldi	r24, 0x03	; 3
     b82:	80 83       	st	Z, r24
     b84:	24 81       	ldd	r18, Z+4	; 0x04
     b86:	35 81       	ldd	r19, Z+5	; 0x05
     b88:	46 81       	ldd	r20, Z+6	; 0x06
     b8a:	57 81       	ldd	r21, Z+7	; 0x07
     b8c:	55 23       	and	r21, r21
     b8e:	d4 f4       	brge	.+52     	; 0xbc4 <_fpadd_parts+0x27a>
     b90:	c9 01       	movw	r24, r18
     b92:	aa 27       	eor	r26, r26
     b94:	97 fd       	sbrc	r25, 7
     b96:	a0 95       	com	r26
     b98:	ba 2f       	mov	r27, r26
     b9a:	81 70       	andi	r24, 0x01	; 1
     b9c:	90 70       	andi	r25, 0x00	; 0
     b9e:	a0 70       	andi	r26, 0x00	; 0
     ba0:	b0 70       	andi	r27, 0x00	; 0
     ba2:	56 95       	lsr	r21
     ba4:	47 95       	ror	r20
     ba6:	37 95       	ror	r19
     ba8:	27 95       	ror	r18
     baa:	82 2b       	or	r24, r18
     bac:	93 2b       	or	r25, r19
     bae:	a4 2b       	or	r26, r20
     bb0:	b5 2b       	or	r27, r21
     bb2:	84 83       	std	Z+4, r24	; 0x04
     bb4:	95 83       	std	Z+5, r25	; 0x05
     bb6:	a6 83       	std	Z+6, r26	; 0x06
     bb8:	b7 83       	std	Z+7, r27	; 0x07
     bba:	82 81       	ldd	r24, Z+2	; 0x02
     bbc:	93 81       	ldd	r25, Z+3	; 0x03
     bbe:	01 96       	adiw	r24, 0x01	; 1
     bc0:	93 83       	std	Z+3, r25	; 0x03
     bc2:	82 83       	std	Z+2, r24	; 0x02
     bc4:	2f 01       	movw	r4, r30
     bc6:	01 c0       	rjmp	.+2      	; 0xbca <_fpadd_parts+0x280>
     bc8:	25 01       	movw	r4, r10
     bca:	c2 01       	movw	r24, r4
     bcc:	e0 e1       	ldi	r30, 0x10	; 16
     bce:	cd b7       	in	r28, 0x3d	; 61
     bd0:	de b7       	in	r29, 0x3e	; 62
     bd2:	0c 94 9e 0d 	jmp	0x1b3c	; 0x1b3c <__epilogue_restores__+0x4>

00000bd6 <__subsf3>:
     bd6:	a0 e2       	ldi	r26, 0x20	; 32
     bd8:	b0 e0       	ldi	r27, 0x00	; 0
     bda:	e1 ef       	ldi	r30, 0xF1	; 241
     bdc:	f5 e0       	ldi	r31, 0x05	; 5
     bde:	0c 94 8c 0d 	jmp	0x1b18	; 0x1b18 <__prologue_saves__+0x18>
     be2:	69 83       	std	Y+1, r22	; 0x01
     be4:	7a 83       	std	Y+2, r23	; 0x02
     be6:	8b 83       	std	Y+3, r24	; 0x03
     be8:	9c 83       	std	Y+4, r25	; 0x04
     bea:	2d 83       	std	Y+5, r18	; 0x05
     bec:	3e 83       	std	Y+6, r19	; 0x06
     bee:	4f 83       	std	Y+7, r20	; 0x07
     bf0:	58 87       	std	Y+8, r21	; 0x08
     bf2:	09 e0       	ldi	r16, 0x09	; 9
     bf4:	e0 2e       	mov	r14, r16
     bf6:	f1 2c       	mov	r15, r1
     bf8:	ec 0e       	add	r14, r28
     bfa:	fd 1e       	adc	r15, r29
     bfc:	b7 01       	movw	r22, r14
     bfe:	ce 01       	movw	r24, r28
     c00:	01 96       	adiw	r24, 0x01	; 1
     c02:	0e 94 f0 09 	call	0x13e0	; 0x13e0 <__unpack_f>
     c06:	8e 01       	movw	r16, r28
     c08:	0f 5e       	subi	r16, 0xEF	; 239
     c0a:	1f 4f       	sbci	r17, 0xFF	; 255
     c0c:	b8 01       	movw	r22, r16
     c0e:	ce 01       	movw	r24, r28
     c10:	05 96       	adiw	r24, 0x05	; 5
     c12:	0e 94 f0 09 	call	0x13e0	; 0x13e0 <__unpack_f>
     c16:	8a 89       	ldd	r24, Y+18	; 0x12
     c18:	91 e0       	ldi	r25, 0x01	; 1
     c1a:	89 27       	eor	r24, r25
     c1c:	8a 8b       	std	Y+18, r24	; 0x12
     c1e:	ae 01       	movw	r20, r28
     c20:	47 5e       	subi	r20, 0xE7	; 231
     c22:	5f 4f       	sbci	r21, 0xFF	; 255
     c24:	b8 01       	movw	r22, r16
     c26:	c7 01       	movw	r24, r14
     c28:	0e 94 a5 04 	call	0x94a	; 0x94a <_fpadd_parts>
     c2c:	0e 94 10 09 	call	0x1220	; 0x1220 <__pack_f>
     c30:	e6 e0       	ldi	r30, 0x06	; 6
     c32:	a0 96       	adiw	r28, 0x20	; 32
     c34:	0c 94 a8 0d 	jmp	0x1b50	; 0x1b50 <__epilogue_restores__+0x18>

00000c38 <__addsf3>:
     c38:	a0 e2       	ldi	r26, 0x20	; 32
     c3a:	b0 e0       	ldi	r27, 0x00	; 0
     c3c:	e2 e2       	ldi	r30, 0x22	; 34
     c3e:	f6 e0       	ldi	r31, 0x06	; 6
     c40:	0c 94 8c 0d 	jmp	0x1b18	; 0x1b18 <__prologue_saves__+0x18>
     c44:	69 83       	std	Y+1, r22	; 0x01
     c46:	7a 83       	std	Y+2, r23	; 0x02
     c48:	8b 83       	std	Y+3, r24	; 0x03
     c4a:	9c 83       	std	Y+4, r25	; 0x04
     c4c:	2d 83       	std	Y+5, r18	; 0x05
     c4e:	3e 83       	std	Y+6, r19	; 0x06
     c50:	4f 83       	std	Y+7, r20	; 0x07
     c52:	58 87       	std	Y+8, r21	; 0x08
     c54:	89 e0       	ldi	r24, 0x09	; 9
     c56:	e8 2e       	mov	r14, r24
     c58:	f1 2c       	mov	r15, r1
     c5a:	ec 0e       	add	r14, r28
     c5c:	fd 1e       	adc	r15, r29
     c5e:	b7 01       	movw	r22, r14
     c60:	ce 01       	movw	r24, r28
     c62:	01 96       	adiw	r24, 0x01	; 1
     c64:	0e 94 f0 09 	call	0x13e0	; 0x13e0 <__unpack_f>
     c68:	8e 01       	movw	r16, r28
     c6a:	0f 5e       	subi	r16, 0xEF	; 239
     c6c:	1f 4f       	sbci	r17, 0xFF	; 255
     c6e:	b8 01       	movw	r22, r16
     c70:	ce 01       	movw	r24, r28
     c72:	05 96       	adiw	r24, 0x05	; 5
     c74:	0e 94 f0 09 	call	0x13e0	; 0x13e0 <__unpack_f>
     c78:	ae 01       	movw	r20, r28
     c7a:	47 5e       	subi	r20, 0xE7	; 231
     c7c:	5f 4f       	sbci	r21, 0xFF	; 255
     c7e:	b8 01       	movw	r22, r16
     c80:	c7 01       	movw	r24, r14
     c82:	0e 94 a5 04 	call	0x94a	; 0x94a <_fpadd_parts>
     c86:	0e 94 10 09 	call	0x1220	; 0x1220 <__pack_f>
     c8a:	e6 e0       	ldi	r30, 0x06	; 6
     c8c:	a0 96       	adiw	r28, 0x20	; 32
     c8e:	0c 94 a8 0d 	jmp	0x1b50	; 0x1b50 <__epilogue_restores__+0x18>

00000c92 <__mulsf3>:
     c92:	a0 e2       	ldi	r26, 0x20	; 32
     c94:	b0 e0       	ldi	r27, 0x00	; 0
     c96:	ef e4       	ldi	r30, 0x4F	; 79
     c98:	f6 e0       	ldi	r31, 0x06	; 6
     c9a:	0c 94 82 0d 	jmp	0x1b04	; 0x1b04 <__prologue_saves__+0x4>
     c9e:	69 83       	std	Y+1, r22	; 0x01
     ca0:	7a 83       	std	Y+2, r23	; 0x02
     ca2:	8b 83       	std	Y+3, r24	; 0x03
     ca4:	9c 83       	std	Y+4, r25	; 0x04
     ca6:	2d 83       	std	Y+5, r18	; 0x05
     ca8:	3e 83       	std	Y+6, r19	; 0x06
     caa:	4f 83       	std	Y+7, r20	; 0x07
     cac:	58 87       	std	Y+8, r21	; 0x08
     cae:	99 e0       	ldi	r25, 0x09	; 9
     cb0:	e9 2e       	mov	r14, r25
     cb2:	f1 2c       	mov	r15, r1
     cb4:	ec 0e       	add	r14, r28
     cb6:	fd 1e       	adc	r15, r29
     cb8:	b7 01       	movw	r22, r14
     cba:	ce 01       	movw	r24, r28
     cbc:	01 96       	adiw	r24, 0x01	; 1
     cbe:	0e 94 f0 09 	call	0x13e0	; 0x13e0 <__unpack_f>
     cc2:	8e 01       	movw	r16, r28
     cc4:	0f 5e       	subi	r16, 0xEF	; 239
     cc6:	1f 4f       	sbci	r17, 0xFF	; 255
     cc8:	b8 01       	movw	r22, r16
     cca:	ce 01       	movw	r24, r28
     ccc:	05 96       	adiw	r24, 0x05	; 5
     cce:	0e 94 f0 09 	call	0x13e0	; 0x13e0 <__unpack_f>
     cd2:	99 85       	ldd	r25, Y+9	; 0x09
     cd4:	92 30       	cpi	r25, 0x02	; 2
     cd6:	88 f0       	brcs	.+34     	; 0xcfa <__mulsf3+0x68>
     cd8:	89 89       	ldd	r24, Y+17	; 0x11
     cda:	82 30       	cpi	r24, 0x02	; 2
     cdc:	c0 f0       	brcs	.+48     	; 0xd0e <__mulsf3+0x7c>
     cde:	94 30       	cpi	r25, 0x04	; 4
     ce0:	19 f4       	brne	.+6      	; 0xce8 <__mulsf3+0x56>
     ce2:	82 30       	cpi	r24, 0x02	; 2
     ce4:	29 f0       	breq	.+10     	; 0xcf0 <__mulsf3+0x5e>
     ce6:	09 c0       	rjmp	.+18     	; 0xcfa <__mulsf3+0x68>
     ce8:	84 30       	cpi	r24, 0x04	; 4
     cea:	29 f4       	brne	.+10     	; 0xcf6 <__mulsf3+0x64>
     cec:	92 30       	cpi	r25, 0x02	; 2
     cee:	79 f4       	brne	.+30     	; 0xd0e <__mulsf3+0x7c>
     cf0:	6f ed       	ldi	r22, 0xDF	; 223
     cf2:	70 e0       	ldi	r23, 0x00	; 0
     cf4:	c6 c0       	rjmp	.+396    	; 0xe82 <__mulsf3+0x1f0>
     cf6:	92 30       	cpi	r25, 0x02	; 2
     cf8:	41 f4       	brne	.+16     	; 0xd0a <__mulsf3+0x78>
     cfa:	20 e0       	ldi	r18, 0x00	; 0
     cfc:	9a 85       	ldd	r25, Y+10	; 0x0a
     cfe:	8a 89       	ldd	r24, Y+18	; 0x12
     d00:	98 13       	cpse	r25, r24
     d02:	21 e0       	ldi	r18, 0x01	; 1
     d04:	2a 87       	std	Y+10, r18	; 0x0a
     d06:	b7 01       	movw	r22, r14
     d08:	bc c0       	rjmp	.+376    	; 0xe82 <__mulsf3+0x1f0>
     d0a:	82 30       	cpi	r24, 0x02	; 2
     d0c:	41 f4       	brne	.+16     	; 0xd1e <__mulsf3+0x8c>
     d0e:	20 e0       	ldi	r18, 0x00	; 0
     d10:	9a 85       	ldd	r25, Y+10	; 0x0a
     d12:	8a 89       	ldd	r24, Y+18	; 0x12
     d14:	98 13       	cpse	r25, r24
     d16:	21 e0       	ldi	r18, 0x01	; 1
     d18:	2a 8b       	std	Y+18, r18	; 0x12
     d1a:	b8 01       	movw	r22, r16
     d1c:	b2 c0       	rjmp	.+356    	; 0xe82 <__mulsf3+0x1f0>
     d1e:	cd 84       	ldd	r12, Y+13	; 0x0d
     d20:	de 84       	ldd	r13, Y+14	; 0x0e
     d22:	ef 84       	ldd	r14, Y+15	; 0x0f
     d24:	f8 88       	ldd	r15, Y+16	; 0x10
     d26:	0d 89       	ldd	r16, Y+21	; 0x15
     d28:	1e 89       	ldd	r17, Y+22	; 0x16
     d2a:	2f 89       	ldd	r18, Y+23	; 0x17
     d2c:	38 8d       	ldd	r19, Y+24	; 0x18
     d2e:	88 24       	eor	r8, r8
     d30:	99 24       	eor	r9, r9
     d32:	54 01       	movw	r10, r8
     d34:	40 e0       	ldi	r20, 0x00	; 0
     d36:	50 e0       	ldi	r21, 0x00	; 0
     d38:	60 e0       	ldi	r22, 0x00	; 0
     d3a:	70 e0       	ldi	r23, 0x00	; 0
     d3c:	44 24       	eor	r4, r4
     d3e:	55 24       	eor	r5, r5
     d40:	32 01       	movw	r6, r4
     d42:	e0 e0       	ldi	r30, 0x00	; 0
     d44:	f0 e0       	ldi	r31, 0x00	; 0
     d46:	c6 01       	movw	r24, r12
     d48:	81 70       	andi	r24, 0x01	; 1
     d4a:	90 70       	andi	r25, 0x00	; 0
     d4c:	89 2b       	or	r24, r25
     d4e:	d9 f0       	breq	.+54     	; 0xd86 <__mulsf3+0xf4>
     d50:	80 0e       	add	r8, r16
     d52:	91 1e       	adc	r9, r17
     d54:	a2 1e       	adc	r10, r18
     d56:	b3 1e       	adc	r11, r19
     d58:	db 01       	movw	r26, r22
     d5a:	ca 01       	movw	r24, r20
     d5c:	84 0d       	add	r24, r4
     d5e:	95 1d       	adc	r25, r5
     d60:	a6 1d       	adc	r26, r6
     d62:	b7 1d       	adc	r27, r7
     d64:	40 e0       	ldi	r20, 0x00	; 0
     d66:	50 e0       	ldi	r21, 0x00	; 0
     d68:	60 e0       	ldi	r22, 0x00	; 0
     d6a:	70 e0       	ldi	r23, 0x00	; 0
     d6c:	80 16       	cp	r8, r16
     d6e:	91 06       	cpc	r9, r17
     d70:	a2 06       	cpc	r10, r18
     d72:	b3 06       	cpc	r11, r19
     d74:	20 f4       	brcc	.+8      	; 0xd7e <__mulsf3+0xec>
     d76:	41 e0       	ldi	r20, 0x01	; 1
     d78:	50 e0       	ldi	r21, 0x00	; 0
     d7a:	60 e0       	ldi	r22, 0x00	; 0
     d7c:	70 e0       	ldi	r23, 0x00	; 0
     d7e:	48 0f       	add	r20, r24
     d80:	59 1f       	adc	r21, r25
     d82:	6a 1f       	adc	r22, r26
     d84:	7b 1f       	adc	r23, r27
     d86:	44 0c       	add	r4, r4
     d88:	55 1c       	adc	r5, r5
     d8a:	66 1c       	adc	r6, r6
     d8c:	77 1c       	adc	r7, r7
     d8e:	37 ff       	sbrs	r19, 7
     d90:	08 c0       	rjmp	.+16     	; 0xda2 <__mulsf3+0x110>
     d92:	81 e0       	ldi	r24, 0x01	; 1
     d94:	90 e0       	ldi	r25, 0x00	; 0
     d96:	a0 e0       	ldi	r26, 0x00	; 0
     d98:	b0 e0       	ldi	r27, 0x00	; 0
     d9a:	48 2a       	or	r4, r24
     d9c:	59 2a       	or	r5, r25
     d9e:	6a 2a       	or	r6, r26
     da0:	7b 2a       	or	r7, r27
     da2:	31 96       	adiw	r30, 0x01	; 1
     da4:	e0 32       	cpi	r30, 0x20	; 32
     da6:	f1 05       	cpc	r31, r1
     da8:	49 f0       	breq	.+18     	; 0xdbc <__mulsf3+0x12a>
     daa:	00 0f       	add	r16, r16
     dac:	11 1f       	adc	r17, r17
     dae:	22 1f       	adc	r18, r18
     db0:	33 1f       	adc	r19, r19
     db2:	f6 94       	lsr	r15
     db4:	e7 94       	ror	r14
     db6:	d7 94       	ror	r13
     db8:	c7 94       	ror	r12
     dba:	c5 cf       	rjmp	.-118    	; 0xd46 <__mulsf3+0xb4>
     dbc:	8b 89       	ldd	r24, Y+19	; 0x13
     dbe:	9c 89       	ldd	r25, Y+20	; 0x14
     dc0:	2b 85       	ldd	r18, Y+11	; 0x0b
     dc2:	3c 85       	ldd	r19, Y+12	; 0x0c
     dc4:	82 0f       	add	r24, r18
     dc6:	93 1f       	adc	r25, r19
     dc8:	02 96       	adiw	r24, 0x02	; 2
     dca:	9c 8f       	std	Y+28, r25	; 0x1c
     dcc:	8b 8f       	std	Y+27, r24	; 0x1b
     dce:	1a 8e       	std	Y+26, r1	; 0x1a
     dd0:	9a 85       	ldd	r25, Y+10	; 0x0a
     dd2:	8a 89       	ldd	r24, Y+18	; 0x12
     dd4:	98 17       	cp	r25, r24
     dd6:	11 f0       	breq	.+4      	; 0xddc <__mulsf3+0x14a>
     dd8:	81 e0       	ldi	r24, 0x01	; 1
     dda:	8a 8f       	std	Y+26, r24	; 0x1a
     ddc:	2b 8d       	ldd	r18, Y+27	; 0x1b
     dde:	3c 8d       	ldd	r19, Y+28	; 0x1c
     de0:	17 c0       	rjmp	.+46     	; 0xe10 <__mulsf3+0x17e>
     de2:	ca 01       	movw	r24, r20
     de4:	81 70       	andi	r24, 0x01	; 1
     de6:	90 70       	andi	r25, 0x00	; 0
     de8:	89 2b       	or	r24, r25
     dea:	61 f0       	breq	.+24     	; 0xe04 <__mulsf3+0x172>
     dec:	b6 94       	lsr	r11
     dee:	a7 94       	ror	r10
     df0:	97 94       	ror	r9
     df2:	87 94       	ror	r8
     df4:	80 e0       	ldi	r24, 0x00	; 0
     df6:	90 e0       	ldi	r25, 0x00	; 0
     df8:	a0 e0       	ldi	r26, 0x00	; 0
     dfa:	b0 e8       	ldi	r27, 0x80	; 128
     dfc:	88 2a       	or	r8, r24
     dfe:	99 2a       	or	r9, r25
     e00:	aa 2a       	or	r10, r26
     e02:	bb 2a       	or	r11, r27
     e04:	76 95       	lsr	r23
     e06:	67 95       	ror	r22
     e08:	57 95       	ror	r21
     e0a:	47 95       	ror	r20
     e0c:	2f 5f       	subi	r18, 0xFF	; 255
     e0e:	3f 4f       	sbci	r19, 0xFF	; 255
     e10:	77 fd       	sbrc	r23, 7
     e12:	e7 cf       	rjmp	.-50     	; 0xde2 <__mulsf3+0x150>
     e14:	c9 01       	movw	r24, r18
     e16:	0b c0       	rjmp	.+22     	; 0xe2e <__mulsf3+0x19c>
     e18:	44 0f       	add	r20, r20
     e1a:	55 1f       	adc	r21, r21
     e1c:	66 1f       	adc	r22, r22
     e1e:	77 1f       	adc	r23, r23
     e20:	b7 fc       	sbrc	r11, 7
     e22:	41 60       	ori	r20, 0x01	; 1
     e24:	88 0c       	add	r8, r8
     e26:	99 1c       	adc	r9, r9
     e28:	aa 1c       	adc	r10, r10
     e2a:	bb 1c       	adc	r11, r11
     e2c:	01 97       	sbiw	r24, 0x01	; 1
     e2e:	40 30       	cpi	r20, 0x00	; 0
     e30:	a0 e0       	ldi	r26, 0x00	; 0
     e32:	5a 07       	cpc	r21, r26
     e34:	a0 e0       	ldi	r26, 0x00	; 0
     e36:	6a 07       	cpc	r22, r26
     e38:	a0 e4       	ldi	r26, 0x40	; 64
     e3a:	7a 07       	cpc	r23, r26
     e3c:	68 f3       	brcs	.-38     	; 0xe18 <__mulsf3+0x186>
     e3e:	9c 8f       	std	Y+28, r25	; 0x1c
     e40:	8b 8f       	std	Y+27, r24	; 0x1b
     e42:	db 01       	movw	r26, r22
     e44:	ca 01       	movw	r24, r20
     e46:	8f 77       	andi	r24, 0x7F	; 127
     e48:	90 70       	andi	r25, 0x00	; 0
     e4a:	a0 70       	andi	r26, 0x00	; 0
     e4c:	b0 70       	andi	r27, 0x00	; 0
     e4e:	80 34       	cpi	r24, 0x40	; 64
     e50:	91 05       	cpc	r25, r1
     e52:	a1 05       	cpc	r26, r1
     e54:	b1 05       	cpc	r27, r1
     e56:	61 f4       	brne	.+24     	; 0xe70 <__mulsf3+0x1de>
     e58:	47 fd       	sbrc	r20, 7
     e5a:	0a c0       	rjmp	.+20     	; 0xe70 <__mulsf3+0x1de>
     e5c:	81 14       	cp	r8, r1
     e5e:	91 04       	cpc	r9, r1
     e60:	a1 04       	cpc	r10, r1
     e62:	b1 04       	cpc	r11, r1
     e64:	29 f0       	breq	.+10     	; 0xe70 <__mulsf3+0x1de>
     e66:	40 5c       	subi	r20, 0xC0	; 192
     e68:	5f 4f       	sbci	r21, 0xFF	; 255
     e6a:	6f 4f       	sbci	r22, 0xFF	; 255
     e6c:	7f 4f       	sbci	r23, 0xFF	; 255
     e6e:	40 78       	andi	r20, 0x80	; 128
     e70:	4d 8f       	std	Y+29, r20	; 0x1d
     e72:	5e 8f       	std	Y+30, r21	; 0x1e
     e74:	6f 8f       	std	Y+31, r22	; 0x1f
     e76:	78 a3       	std	Y+32, r23	; 0x20
     e78:	83 e0       	ldi	r24, 0x03	; 3
     e7a:	89 8f       	std	Y+25, r24	; 0x19
     e7c:	be 01       	movw	r22, r28
     e7e:	67 5e       	subi	r22, 0xE7	; 231
     e80:	7f 4f       	sbci	r23, 0xFF	; 255
     e82:	cb 01       	movw	r24, r22
     e84:	0e 94 10 09 	call	0x1220	; 0x1220 <__pack_f>
     e88:	e0 e1       	ldi	r30, 0x10	; 16
     e8a:	a0 96       	adiw	r28, 0x20	; 32
     e8c:	0c 94 9e 0d 	jmp	0x1b3c	; 0x1b3c <__epilogue_restores__+0x4>

00000e90 <__divsf3>:
     e90:	a8 e1       	ldi	r26, 0x18	; 24
     e92:	b0 e0       	ldi	r27, 0x00	; 0
     e94:	ee e4       	ldi	r30, 0x4E	; 78
     e96:	f7 e0       	ldi	r31, 0x07	; 7
     e98:	0c 94 88 0d 	jmp	0x1b10	; 0x1b10 <__prologue_saves__+0x10>
     e9c:	69 83       	std	Y+1, r22	; 0x01
     e9e:	7a 83       	std	Y+2, r23	; 0x02
     ea0:	8b 83       	std	Y+3, r24	; 0x03
     ea2:	9c 83       	std	Y+4, r25	; 0x04
     ea4:	2d 83       	std	Y+5, r18	; 0x05
     ea6:	3e 83       	std	Y+6, r19	; 0x06
     ea8:	4f 83       	std	Y+7, r20	; 0x07
     eaa:	58 87       	std	Y+8, r21	; 0x08
     eac:	8e 01       	movw	r16, r28
     eae:	07 5f       	subi	r16, 0xF7	; 247
     eb0:	1f 4f       	sbci	r17, 0xFF	; 255
     eb2:	b8 01       	movw	r22, r16
     eb4:	ce 01       	movw	r24, r28
     eb6:	01 96       	adiw	r24, 0x01	; 1
     eb8:	0e 94 f0 09 	call	0x13e0	; 0x13e0 <__unpack_f>
     ebc:	81 e1       	ldi	r24, 0x11	; 17
     ebe:	e8 2e       	mov	r14, r24
     ec0:	f1 2c       	mov	r15, r1
     ec2:	ec 0e       	add	r14, r28
     ec4:	fd 1e       	adc	r15, r29
     ec6:	b7 01       	movw	r22, r14
     ec8:	ce 01       	movw	r24, r28
     eca:	05 96       	adiw	r24, 0x05	; 5
     ecc:	0e 94 f0 09 	call	0x13e0	; 0x13e0 <__unpack_f>
     ed0:	39 85       	ldd	r19, Y+9	; 0x09
     ed2:	32 30       	cpi	r19, 0x02	; 2
     ed4:	f8 f0       	brcs	.+62     	; 0xf14 <__divsf3+0x84>
     ed6:	29 89       	ldd	r18, Y+17	; 0x11
     ed8:	22 30       	cpi	r18, 0x02	; 2
     eda:	10 f4       	brcc	.+4      	; 0xee0 <__divsf3+0x50>
     edc:	b7 01       	movw	r22, r14
     ede:	86 c0       	rjmp	.+268    	; 0xfec <__divsf3+0x15c>
     ee0:	8a 85       	ldd	r24, Y+10	; 0x0a
     ee2:	9a 89       	ldd	r25, Y+18	; 0x12
     ee4:	89 27       	eor	r24, r25
     ee6:	8a 87       	std	Y+10, r24	; 0x0a
     ee8:	34 30       	cpi	r19, 0x04	; 4
     eea:	11 f0       	breq	.+4      	; 0xef0 <__divsf3+0x60>
     eec:	32 30       	cpi	r19, 0x02	; 2
     eee:	29 f4       	brne	.+10     	; 0xefa <__divsf3+0x6a>
     ef0:	32 17       	cp	r19, r18
     ef2:	81 f4       	brne	.+32     	; 0xf14 <__divsf3+0x84>
     ef4:	6f ed       	ldi	r22, 0xDF	; 223
     ef6:	70 e0       	ldi	r23, 0x00	; 0
     ef8:	79 c0       	rjmp	.+242    	; 0xfec <__divsf3+0x15c>
     efa:	24 30       	cpi	r18, 0x04	; 4
     efc:	39 f4       	brne	.+14     	; 0xf0c <__divsf3+0x7c>
     efe:	1d 86       	std	Y+13, r1	; 0x0d
     f00:	1e 86       	std	Y+14, r1	; 0x0e
     f02:	1f 86       	std	Y+15, r1	; 0x0f
     f04:	18 8a       	std	Y+16, r1	; 0x10
     f06:	1c 86       	std	Y+12, r1	; 0x0c
     f08:	1b 86       	std	Y+11, r1	; 0x0b
     f0a:	04 c0       	rjmp	.+8      	; 0xf14 <__divsf3+0x84>
     f0c:	22 30       	cpi	r18, 0x02	; 2
     f0e:	21 f4       	brne	.+8      	; 0xf18 <__divsf3+0x88>
     f10:	84 e0       	ldi	r24, 0x04	; 4
     f12:	89 87       	std	Y+9, r24	; 0x09
     f14:	b8 01       	movw	r22, r16
     f16:	6a c0       	rjmp	.+212    	; 0xfec <__divsf3+0x15c>
     f18:	6b 85       	ldd	r22, Y+11	; 0x0b
     f1a:	7c 85       	ldd	r23, Y+12	; 0x0c
     f1c:	8b 89       	ldd	r24, Y+19	; 0x13
     f1e:	9c 89       	ldd	r25, Y+20	; 0x14
     f20:	68 1b       	sub	r22, r24
     f22:	79 0b       	sbc	r23, r25
     f24:	7c 87       	std	Y+12, r23	; 0x0c
     f26:	6b 87       	std	Y+11, r22	; 0x0b
     f28:	2d 85       	ldd	r18, Y+13	; 0x0d
     f2a:	3e 85       	ldd	r19, Y+14	; 0x0e
     f2c:	4f 85       	ldd	r20, Y+15	; 0x0f
     f2e:	58 89       	ldd	r21, Y+16	; 0x10
     f30:	8d 89       	ldd	r24, Y+21	; 0x15
     f32:	9e 89       	ldd	r25, Y+22	; 0x16
     f34:	af 89       	ldd	r26, Y+23	; 0x17
     f36:	b8 8d       	ldd	r27, Y+24	; 0x18
     f38:	28 17       	cp	r18, r24
     f3a:	39 07       	cpc	r19, r25
     f3c:	4a 07       	cpc	r20, r26
     f3e:	5b 07       	cpc	r21, r27
     f40:	40 f4       	brcc	.+16     	; 0xf52 <__divsf3+0xc2>
     f42:	22 0f       	add	r18, r18
     f44:	33 1f       	adc	r19, r19
     f46:	44 1f       	adc	r20, r20
     f48:	55 1f       	adc	r21, r21
     f4a:	61 50       	subi	r22, 0x01	; 1
     f4c:	70 40       	sbci	r23, 0x00	; 0
     f4e:	7c 87       	std	Y+12, r23	; 0x0c
     f50:	6b 87       	std	Y+11, r22	; 0x0b
     f52:	a1 2c       	mov	r10, r1
     f54:	b1 2c       	mov	r11, r1
     f56:	c1 2c       	mov	r12, r1
     f58:	10 e4       	ldi	r17, 0x40	; 64
     f5a:	d1 2e       	mov	r13, r17
     f5c:	ee 24       	eor	r14, r14
     f5e:	ff 24       	eor	r15, r15
     f60:	87 01       	movw	r16, r14
     f62:	60 e0       	ldi	r22, 0x00	; 0
     f64:	70 e0       	ldi	r23, 0x00	; 0
     f66:	28 17       	cp	r18, r24
     f68:	39 07       	cpc	r19, r25
     f6a:	4a 07       	cpc	r20, r26
     f6c:	5b 07       	cpc	r21, r27
     f6e:	40 f0       	brcs	.+16     	; 0xf80 <__divsf3+0xf0>
     f70:	ea 28       	or	r14, r10
     f72:	fb 28       	or	r15, r11
     f74:	0c 29       	or	r16, r12
     f76:	1d 29       	or	r17, r13
     f78:	28 1b       	sub	r18, r24
     f7a:	39 0b       	sbc	r19, r25
     f7c:	4a 0b       	sbc	r20, r26
     f7e:	5b 0b       	sbc	r21, r27
     f80:	d6 94       	lsr	r13
     f82:	c7 94       	ror	r12
     f84:	b7 94       	ror	r11
     f86:	a7 94       	ror	r10
     f88:	22 0f       	add	r18, r18
     f8a:	33 1f       	adc	r19, r19
     f8c:	44 1f       	adc	r20, r20
     f8e:	55 1f       	adc	r21, r21
     f90:	6f 5f       	subi	r22, 0xFF	; 255
     f92:	7f 4f       	sbci	r23, 0xFF	; 255
     f94:	6f 31       	cpi	r22, 0x1F	; 31
     f96:	71 05       	cpc	r23, r1
     f98:	31 f7       	brne	.-52     	; 0xf66 <__divsf3+0xd6>
     f9a:	d8 01       	movw	r26, r16
     f9c:	c7 01       	movw	r24, r14
     f9e:	8f 77       	andi	r24, 0x7F	; 127
     fa0:	90 70       	andi	r25, 0x00	; 0
     fa2:	a0 70       	andi	r26, 0x00	; 0
     fa4:	b0 70       	andi	r27, 0x00	; 0
     fa6:	80 34       	cpi	r24, 0x40	; 64
     fa8:	91 05       	cpc	r25, r1
     faa:	a1 05       	cpc	r26, r1
     fac:	b1 05       	cpc	r27, r1
     fae:	b9 f4       	brne	.+46     	; 0xfde <__divsf3+0x14e>
     fb0:	e7 fc       	sbrc	r14, 7
     fb2:	15 c0       	rjmp	.+42     	; 0xfde <__divsf3+0x14e>
     fb4:	21 15       	cp	r18, r1
     fb6:	31 05       	cpc	r19, r1
     fb8:	41 05       	cpc	r20, r1
     fba:	51 05       	cpc	r21, r1
     fbc:	81 f0       	breq	.+32     	; 0xfde <__divsf3+0x14e>
     fbe:	80 e4       	ldi	r24, 0x40	; 64
     fc0:	90 e0       	ldi	r25, 0x00	; 0
     fc2:	a0 e0       	ldi	r26, 0x00	; 0
     fc4:	b0 e0       	ldi	r27, 0x00	; 0
     fc6:	e8 0e       	add	r14, r24
     fc8:	f9 1e       	adc	r15, r25
     fca:	0a 1f       	adc	r16, r26
     fcc:	1b 1f       	adc	r17, r27
     fce:	80 e8       	ldi	r24, 0x80	; 128
     fd0:	9f ef       	ldi	r25, 0xFF	; 255
     fd2:	af ef       	ldi	r26, 0xFF	; 255
     fd4:	bf ef       	ldi	r27, 0xFF	; 255
     fd6:	e8 22       	and	r14, r24
     fd8:	f9 22       	and	r15, r25
     fda:	0a 23       	and	r16, r26
     fdc:	1b 23       	and	r17, r27
     fde:	ed 86       	std	Y+13, r14	; 0x0d
     fe0:	fe 86       	std	Y+14, r15	; 0x0e
     fe2:	0f 87       	std	Y+15, r16	; 0x0f
     fe4:	18 8b       	std	Y+16, r17	; 0x10
     fe6:	be 01       	movw	r22, r28
     fe8:	67 5f       	subi	r22, 0xF7	; 247
     fea:	7f 4f       	sbci	r23, 0xFF	; 255
     fec:	cb 01       	movw	r24, r22
     fee:	0e 94 10 09 	call	0x1220	; 0x1220 <__pack_f>
     ff2:	ea e0       	ldi	r30, 0x0A	; 10
     ff4:	68 96       	adiw	r28, 0x18	; 24
     ff6:	0c 94 a4 0d 	jmp	0x1b48	; 0x1b48 <__epilogue_restores__+0x10>

00000ffa <__fixsfsi>:
     ffa:	ac e0       	ldi	r26, 0x0C	; 12
     ffc:	b0 e0       	ldi	r27, 0x00	; 0
     ffe:	e3 e0       	ldi	r30, 0x03	; 3
    1000:	f8 e0       	ldi	r31, 0x08	; 8
    1002:	0c 94 90 0d 	jmp	0x1b20	; 0x1b20 <__prologue_saves__+0x20>
    1006:	69 83       	std	Y+1, r22	; 0x01
    1008:	7a 83       	std	Y+2, r23	; 0x02
    100a:	8b 83       	std	Y+3, r24	; 0x03
    100c:	9c 83       	std	Y+4, r25	; 0x04
    100e:	be 01       	movw	r22, r28
    1010:	6b 5f       	subi	r22, 0xFB	; 251
    1012:	7f 4f       	sbci	r23, 0xFF	; 255
    1014:	ce 01       	movw	r24, r28
    1016:	01 96       	adiw	r24, 0x01	; 1
    1018:	0e 94 f0 09 	call	0x13e0	; 0x13e0 <__unpack_f>
    101c:	8d 81       	ldd	r24, Y+5	; 0x05
    101e:	82 30       	cpi	r24, 0x02	; 2
    1020:	a9 f1       	breq	.+106    	; 0x108c <__fixsfsi+0x92>
    1022:	82 30       	cpi	r24, 0x02	; 2
    1024:	98 f1       	brcs	.+102    	; 0x108c <__fixsfsi+0x92>
    1026:	84 30       	cpi	r24, 0x04	; 4
    1028:	21 f4       	brne	.+8      	; 0x1032 <__fixsfsi+0x38>
    102a:	8e 81       	ldd	r24, Y+6	; 0x06
    102c:	88 23       	and	r24, r24
    102e:	59 f4       	brne	.+22     	; 0x1046 <__fixsfsi+0x4c>
    1030:	0f c0       	rjmp	.+30     	; 0x1050 <__fixsfsi+0x56>
    1032:	2f 81       	ldd	r18, Y+7	; 0x07
    1034:	38 85       	ldd	r19, Y+8	; 0x08
    1036:	37 fd       	sbrc	r19, 7
    1038:	29 c0       	rjmp	.+82     	; 0x108c <__fixsfsi+0x92>
    103a:	6e 81       	ldd	r22, Y+6	; 0x06
    103c:	2f 31       	cpi	r18, 0x1F	; 31
    103e:	31 05       	cpc	r19, r1
    1040:	64 f0       	brlt	.+24     	; 0x105a <__fixsfsi+0x60>
    1042:	66 23       	and	r22, r22
    1044:	29 f0       	breq	.+10     	; 0x1050 <__fixsfsi+0x56>
    1046:	20 e0       	ldi	r18, 0x00	; 0
    1048:	30 e0       	ldi	r19, 0x00	; 0
    104a:	40 e0       	ldi	r20, 0x00	; 0
    104c:	50 e8       	ldi	r21, 0x80	; 128
    104e:	22 c0       	rjmp	.+68     	; 0x1094 <__fixsfsi+0x9a>
    1050:	2f ef       	ldi	r18, 0xFF	; 255
    1052:	3f ef       	ldi	r19, 0xFF	; 255
    1054:	4f ef       	ldi	r20, 0xFF	; 255
    1056:	5f e7       	ldi	r21, 0x7F	; 127
    1058:	1d c0       	rjmp	.+58     	; 0x1094 <__fixsfsi+0x9a>
    105a:	8e e1       	ldi	r24, 0x1E	; 30
    105c:	90 e0       	ldi	r25, 0x00	; 0
    105e:	82 1b       	sub	r24, r18
    1060:	93 0b       	sbc	r25, r19
    1062:	29 85       	ldd	r18, Y+9	; 0x09
    1064:	3a 85       	ldd	r19, Y+10	; 0x0a
    1066:	4b 85       	ldd	r20, Y+11	; 0x0b
    1068:	5c 85       	ldd	r21, Y+12	; 0x0c
    106a:	04 c0       	rjmp	.+8      	; 0x1074 <__fixsfsi+0x7a>
    106c:	56 95       	lsr	r21
    106e:	47 95       	ror	r20
    1070:	37 95       	ror	r19
    1072:	27 95       	ror	r18
    1074:	8a 95       	dec	r24
    1076:	d2 f7       	brpl	.-12     	; 0x106c <__fixsfsi+0x72>
    1078:	66 23       	and	r22, r22
    107a:	61 f0       	breq	.+24     	; 0x1094 <__fixsfsi+0x9a>
    107c:	50 95       	com	r21
    107e:	40 95       	com	r20
    1080:	30 95       	com	r19
    1082:	21 95       	neg	r18
    1084:	3f 4f       	sbci	r19, 0xFF	; 255
    1086:	4f 4f       	sbci	r20, 0xFF	; 255
    1088:	5f 4f       	sbci	r21, 0xFF	; 255
    108a:	04 c0       	rjmp	.+8      	; 0x1094 <__fixsfsi+0x9a>
    108c:	20 e0       	ldi	r18, 0x00	; 0
    108e:	30 e0       	ldi	r19, 0x00	; 0
    1090:	40 e0       	ldi	r20, 0x00	; 0
    1092:	50 e0       	ldi	r21, 0x00	; 0
    1094:	ca 01       	movw	r24, r20
    1096:	b9 01       	movw	r22, r18
    1098:	e2 e0       	ldi	r30, 0x02	; 2
    109a:	2c 96       	adiw	r28, 0x0c	; 12
    109c:	0c 94 ac 0d 	jmp	0x1b58	; 0x1b58 <__epilogue_restores__+0x20>

000010a0 <__floatunsisf>:
    10a0:	a8 e0       	ldi	r26, 0x08	; 8
    10a2:	b0 e0       	ldi	r27, 0x00	; 0
    10a4:	e6 e5       	ldi	r30, 0x56	; 86
    10a6:	f8 e0       	ldi	r31, 0x08	; 8
    10a8:	0c 94 8a 0d 	jmp	0x1b14	; 0x1b14 <__prologue_saves__+0x14>
    10ac:	7b 01       	movw	r14, r22
    10ae:	8c 01       	movw	r16, r24
    10b0:	61 15       	cp	r22, r1
    10b2:	71 05       	cpc	r23, r1
    10b4:	81 05       	cpc	r24, r1
    10b6:	91 05       	cpc	r25, r1
    10b8:	19 f4       	brne	.+6      	; 0x10c0 <__floatunsisf+0x20>
    10ba:	82 e0       	ldi	r24, 0x02	; 2
    10bc:	89 83       	std	Y+1, r24	; 0x01
    10be:	5a c0       	rjmp	.+180    	; 0x1174 <__floatunsisf+0xd4>
    10c0:	83 e0       	ldi	r24, 0x03	; 3
    10c2:	89 83       	std	Y+1, r24	; 0x01
    10c4:	8e e1       	ldi	r24, 0x1E	; 30
    10c6:	c8 2e       	mov	r12, r24
    10c8:	d1 2c       	mov	r13, r1
    10ca:	dc 82       	std	Y+4, r13	; 0x04
    10cc:	cb 82       	std	Y+3, r12	; 0x03
    10ce:	ed 82       	std	Y+5, r14	; 0x05
    10d0:	fe 82       	std	Y+6, r15	; 0x06
    10d2:	0f 83       	std	Y+7, r16	; 0x07
    10d4:	18 87       	std	Y+8, r17	; 0x08
    10d6:	c8 01       	movw	r24, r16
    10d8:	b7 01       	movw	r22, r14
    10da:	0e 94 c3 08 	call	0x1186	; 0x1186 <__clzsi2>
    10de:	bc 01       	movw	r22, r24
    10e0:	61 50       	subi	r22, 0x01	; 1
    10e2:	70 40       	sbci	r23, 0x00	; 0
    10e4:	77 ff       	sbrs	r23, 7
    10e6:	33 c0       	rjmp	.+102    	; 0x114e <__floatunsisf+0xae>
    10e8:	ee 27       	eor	r30, r30
    10ea:	ff 27       	eor	r31, r31
    10ec:	e6 1b       	sub	r30, r22
    10ee:	f7 0b       	sbc	r31, r23
    10f0:	20 e0       	ldi	r18, 0x00	; 0
    10f2:	30 e0       	ldi	r19, 0x00	; 0
    10f4:	40 e0       	ldi	r20, 0x00	; 0
    10f6:	50 e0       	ldi	r21, 0x00	; 0
    10f8:	81 e0       	ldi	r24, 0x01	; 1
    10fa:	90 e0       	ldi	r25, 0x00	; 0
    10fc:	a0 e0       	ldi	r26, 0x00	; 0
    10fe:	b0 e0       	ldi	r27, 0x00	; 0
    1100:	0e 2e       	mov	r0, r30
    1102:	04 c0       	rjmp	.+8      	; 0x110c <__floatunsisf+0x6c>
    1104:	88 0f       	add	r24, r24
    1106:	99 1f       	adc	r25, r25
    1108:	aa 1f       	adc	r26, r26
    110a:	bb 1f       	adc	r27, r27
    110c:	0a 94       	dec	r0
    110e:	d2 f7       	brpl	.-12     	; 0x1104 <__floatunsisf+0x64>
    1110:	01 97       	sbiw	r24, 0x01	; 1
    1112:	a1 09       	sbc	r26, r1
    1114:	b1 09       	sbc	r27, r1
    1116:	8e 21       	and	r24, r14
    1118:	9f 21       	and	r25, r15
    111a:	a0 23       	and	r26, r16
    111c:	b1 23       	and	r27, r17
    111e:	00 97       	sbiw	r24, 0x00	; 0
    1120:	a1 05       	cpc	r26, r1
    1122:	b1 05       	cpc	r27, r1
    1124:	21 f0       	breq	.+8      	; 0x112e <__floatunsisf+0x8e>
    1126:	21 e0       	ldi	r18, 0x01	; 1
    1128:	30 e0       	ldi	r19, 0x00	; 0
    112a:	40 e0       	ldi	r20, 0x00	; 0
    112c:	50 e0       	ldi	r21, 0x00	; 0
    112e:	04 c0       	rjmp	.+8      	; 0x1138 <__floatunsisf+0x98>
    1130:	16 95       	lsr	r17
    1132:	07 95       	ror	r16
    1134:	f7 94       	ror	r15
    1136:	e7 94       	ror	r14
    1138:	ea 95       	dec	r30
    113a:	d2 f7       	brpl	.-12     	; 0x1130 <__floatunsisf+0x90>
    113c:	2e 29       	or	r18, r14
    113e:	3f 29       	or	r19, r15
    1140:	40 2b       	or	r20, r16
    1142:	51 2b       	or	r21, r17
    1144:	2d 83       	std	Y+5, r18	; 0x05
    1146:	3e 83       	std	Y+6, r19	; 0x06
    1148:	4f 83       	std	Y+7, r20	; 0x07
    114a:	58 87       	std	Y+8, r21	; 0x08
    114c:	0f c0       	rjmp	.+30     	; 0x116c <__floatunsisf+0xcc>
    114e:	61 15       	cp	r22, r1
    1150:	71 05       	cpc	r23, r1
    1152:	81 f0       	breq	.+32     	; 0x1174 <__floatunsisf+0xd4>
    1154:	06 2e       	mov	r0, r22
    1156:	04 c0       	rjmp	.+8      	; 0x1160 <__floatunsisf+0xc0>
    1158:	ee 0c       	add	r14, r14
    115a:	ff 1c       	adc	r15, r15
    115c:	00 1f       	adc	r16, r16
    115e:	11 1f       	adc	r17, r17
    1160:	0a 94       	dec	r0
    1162:	d2 f7       	brpl	.-12     	; 0x1158 <__floatunsisf+0xb8>
    1164:	ed 82       	std	Y+5, r14	; 0x05
    1166:	fe 82       	std	Y+6, r15	; 0x06
    1168:	0f 83       	std	Y+7, r16	; 0x07
    116a:	18 87       	std	Y+8, r17	; 0x08
    116c:	c6 1a       	sub	r12, r22
    116e:	d7 0a       	sbc	r13, r23
    1170:	dc 82       	std	Y+4, r13	; 0x04
    1172:	cb 82       	std	Y+3, r12	; 0x03
    1174:	1a 82       	std	Y+2, r1	; 0x02
    1176:	ce 01       	movw	r24, r28
    1178:	01 96       	adiw	r24, 0x01	; 1
    117a:	0e 94 10 09 	call	0x1220	; 0x1220 <__pack_f>
    117e:	e8 e0       	ldi	r30, 0x08	; 8
    1180:	28 96       	adiw	r28, 0x08	; 8
    1182:	0c 94 a6 0d 	jmp	0x1b4c	; 0x1b4c <__epilogue_restores__+0x14>

00001186 <__clzsi2>:
    1186:	ef 92       	push	r14
    1188:	ff 92       	push	r15
    118a:	0f 93       	push	r16
    118c:	1f 93       	push	r17
    118e:	9b 01       	movw	r18, r22
    1190:	ac 01       	movw	r20, r24
    1192:	20 30       	cpi	r18, 0x00	; 0
    1194:	80 e0       	ldi	r24, 0x00	; 0
    1196:	38 07       	cpc	r19, r24
    1198:	81 e0       	ldi	r24, 0x01	; 1
    119a:	48 07       	cpc	r20, r24
    119c:	80 e0       	ldi	r24, 0x00	; 0
    119e:	58 07       	cpc	r21, r24
    11a0:	80 f4       	brcc	.+32     	; 0x11c2 <__clzsi2+0x3c>
    11a2:	2f 3f       	cpi	r18, 0xFF	; 255
    11a4:	31 05       	cpc	r19, r1
    11a6:	41 05       	cpc	r20, r1
    11a8:	51 05       	cpc	r21, r1
    11aa:	09 f0       	breq	.+2      	; 0x11ae <__clzsi2+0x28>
    11ac:	20 f4       	brcc	.+8      	; 0x11b6 <__clzsi2+0x30>
    11ae:	ee 24       	eor	r14, r14
    11b0:	ff 24       	eor	r15, r15
    11b2:	87 01       	movw	r16, r14
    11b4:	19 c0       	rjmp	.+50     	; 0x11e8 <__clzsi2+0x62>
    11b6:	68 e0       	ldi	r22, 0x08	; 8
    11b8:	e6 2e       	mov	r14, r22
    11ba:	f1 2c       	mov	r15, r1
    11bc:	01 2d       	mov	r16, r1
    11be:	11 2d       	mov	r17, r1
    11c0:	13 c0       	rjmp	.+38     	; 0x11e8 <__clzsi2+0x62>
    11c2:	20 30       	cpi	r18, 0x00	; 0
    11c4:	80 e0       	ldi	r24, 0x00	; 0
    11c6:	38 07       	cpc	r19, r24
    11c8:	80 e0       	ldi	r24, 0x00	; 0
    11ca:	48 07       	cpc	r20, r24
    11cc:	81 e0       	ldi	r24, 0x01	; 1
    11ce:	58 07       	cpc	r21, r24
    11d0:	30 f4       	brcc	.+12     	; 0x11de <__clzsi2+0x58>
    11d2:	90 e1       	ldi	r25, 0x10	; 16
    11d4:	e9 2e       	mov	r14, r25
    11d6:	f1 2c       	mov	r15, r1
    11d8:	01 2d       	mov	r16, r1
    11da:	11 2d       	mov	r17, r1
    11dc:	05 c0       	rjmp	.+10     	; 0x11e8 <__clzsi2+0x62>
    11de:	88 e1       	ldi	r24, 0x18	; 24
    11e0:	e8 2e       	mov	r14, r24
    11e2:	f1 2c       	mov	r15, r1
    11e4:	01 2d       	mov	r16, r1
    11e6:	11 2d       	mov	r17, r1
    11e8:	80 e2       	ldi	r24, 0x20	; 32
    11ea:	90 e0       	ldi	r25, 0x00	; 0
    11ec:	a0 e0       	ldi	r26, 0x00	; 0
    11ee:	b0 e0       	ldi	r27, 0x00	; 0
    11f0:	8e 19       	sub	r24, r14
    11f2:	9f 09       	sbc	r25, r15
    11f4:	a0 0b       	sbc	r26, r16
    11f6:	b1 0b       	sbc	r27, r17
    11f8:	04 c0       	rjmp	.+8      	; 0x1202 <__clzsi2+0x7c>
    11fa:	56 95       	lsr	r21
    11fc:	47 95       	ror	r20
    11fe:	37 95       	ror	r19
    1200:	27 95       	ror	r18
    1202:	ea 94       	dec	r14
    1204:	d2 f7       	brpl	.-12     	; 0x11fa <__clzsi2+0x74>
    1206:	f9 01       	movw	r30, r18
    1208:	e9 51       	subi	r30, 0x19	; 25
    120a:	ff 4f       	sbci	r31, 0xFF	; 255
    120c:	20 81       	ld	r18, Z
    120e:	82 1b       	sub	r24, r18
    1210:	91 09       	sbc	r25, r1
    1212:	a1 09       	sbc	r26, r1
    1214:	b1 09       	sbc	r27, r1
    1216:	1f 91       	pop	r17
    1218:	0f 91       	pop	r16
    121a:	ff 90       	pop	r15
    121c:	ef 90       	pop	r14
    121e:	08 95       	ret

00001220 <__pack_f>:
    1220:	9f 92       	push	r9
    1222:	af 92       	push	r10
    1224:	bf 92       	push	r11
    1226:	cf 92       	push	r12
    1228:	df 92       	push	r13
    122a:	ef 92       	push	r14
    122c:	ff 92       	push	r15
    122e:	0f 93       	push	r16
    1230:	1f 93       	push	r17
    1232:	ee 24       	eor	r14, r14
    1234:	ff 24       	eor	r15, r15
    1236:	87 01       	movw	r16, r14
    1238:	fc 01       	movw	r30, r24
    123a:	24 81       	ldd	r18, Z+4	; 0x04
    123c:	35 81       	ldd	r19, Z+5	; 0x05
    123e:	46 81       	ldd	r20, Z+6	; 0x06
    1240:	57 81       	ldd	r21, Z+7	; 0x07
    1242:	91 80       	ldd	r9, Z+1	; 0x01
    1244:	80 81       	ld	r24, Z
    1246:	82 30       	cpi	r24, 0x02	; 2
    1248:	10 f4       	brcc	.+4      	; 0x124e <__pack_f+0x2e>
    124a:	40 61       	ori	r20, 0x10	; 16
    124c:	a2 c0       	rjmp	.+324    	; 0x1392 <__pack_f+0x172>
    124e:	84 30       	cpi	r24, 0x04	; 4
    1250:	09 f4       	brne	.+2      	; 0x1254 <__pack_f+0x34>
    1252:	9b c0       	rjmp	.+310    	; 0x138a <__pack_f+0x16a>
    1254:	82 30       	cpi	r24, 0x02	; 2
    1256:	29 f4       	brne	.+10     	; 0x1262 <__pack_f+0x42>
    1258:	20 e0       	ldi	r18, 0x00	; 0
    125a:	30 e0       	ldi	r19, 0x00	; 0
    125c:	40 e0       	ldi	r20, 0x00	; 0
    125e:	50 e0       	ldi	r21, 0x00	; 0
    1260:	05 c0       	rjmp	.+10     	; 0x126c <__pack_f+0x4c>
    1262:	21 15       	cp	r18, r1
    1264:	31 05       	cpc	r19, r1
    1266:	41 05       	cpc	r20, r1
    1268:	51 05       	cpc	r21, r1
    126a:	19 f4       	brne	.+6      	; 0x1272 <__pack_f+0x52>
    126c:	e0 e0       	ldi	r30, 0x00	; 0
    126e:	f0 e0       	ldi	r31, 0x00	; 0
    1270:	92 c0       	rjmp	.+292    	; 0x1396 <__pack_f+0x176>
    1272:	82 81       	ldd	r24, Z+2	; 0x02
    1274:	93 81       	ldd	r25, Z+3	; 0x03
    1276:	6f ef       	ldi	r22, 0xFF	; 255
    1278:	82 38       	cpi	r24, 0x82	; 130
    127a:	96 07       	cpc	r25, r22
    127c:	0c f0       	brlt	.+2      	; 0x1280 <__pack_f+0x60>
    127e:	5a c0       	rjmp	.+180    	; 0x1334 <__pack_f+0x114>
    1280:	62 e8       	ldi	r22, 0x82	; 130
    1282:	7f ef       	ldi	r23, 0xFF	; 255
    1284:	68 1b       	sub	r22, r24
    1286:	79 0b       	sbc	r23, r25
    1288:	6a 31       	cpi	r22, 0x1A	; 26
    128a:	71 05       	cpc	r23, r1
    128c:	2c f0       	brlt	.+10     	; 0x1298 <__pack_f+0x78>
    128e:	20 e0       	ldi	r18, 0x00	; 0
    1290:	30 e0       	ldi	r19, 0x00	; 0
    1292:	40 e0       	ldi	r20, 0x00	; 0
    1294:	50 e0       	ldi	r21, 0x00	; 0
    1296:	2a c0       	rjmp	.+84     	; 0x12ec <__pack_f+0xcc>
    1298:	aa 24       	eor	r10, r10
    129a:	bb 24       	eor	r11, r11
    129c:	65 01       	movw	r12, r10
    129e:	81 e0       	ldi	r24, 0x01	; 1
    12a0:	90 e0       	ldi	r25, 0x00	; 0
    12a2:	a0 e0       	ldi	r26, 0x00	; 0
    12a4:	b0 e0       	ldi	r27, 0x00	; 0
    12a6:	06 2e       	mov	r0, r22
    12a8:	04 c0       	rjmp	.+8      	; 0x12b2 <__pack_f+0x92>
    12aa:	88 0f       	add	r24, r24
    12ac:	99 1f       	adc	r25, r25
    12ae:	aa 1f       	adc	r26, r26
    12b0:	bb 1f       	adc	r27, r27
    12b2:	0a 94       	dec	r0
    12b4:	d2 f7       	brpl	.-12     	; 0x12aa <__pack_f+0x8a>
    12b6:	01 97       	sbiw	r24, 0x01	; 1
    12b8:	a1 09       	sbc	r26, r1
    12ba:	b1 09       	sbc	r27, r1
    12bc:	82 23       	and	r24, r18
    12be:	93 23       	and	r25, r19
    12c0:	a4 23       	and	r26, r20
    12c2:	b5 23       	and	r27, r21
    12c4:	00 97       	sbiw	r24, 0x00	; 0
    12c6:	a1 05       	cpc	r26, r1
    12c8:	b1 05       	cpc	r27, r1
    12ca:	29 f0       	breq	.+10     	; 0x12d6 <__pack_f+0xb6>
    12cc:	71 e0       	ldi	r23, 0x01	; 1
    12ce:	a7 2e       	mov	r10, r23
    12d0:	b1 2c       	mov	r11, r1
    12d2:	c1 2c       	mov	r12, r1
    12d4:	d1 2c       	mov	r13, r1
    12d6:	04 c0       	rjmp	.+8      	; 0x12e0 <__pack_f+0xc0>
    12d8:	56 95       	lsr	r21
    12da:	47 95       	ror	r20
    12dc:	37 95       	ror	r19
    12de:	27 95       	ror	r18
    12e0:	6a 95       	dec	r22
    12e2:	d2 f7       	brpl	.-12     	; 0x12d8 <__pack_f+0xb8>
    12e4:	2a 29       	or	r18, r10
    12e6:	3b 29       	or	r19, r11
    12e8:	4c 29       	or	r20, r12
    12ea:	5d 29       	or	r21, r13
    12ec:	da 01       	movw	r26, r20
    12ee:	c9 01       	movw	r24, r18
    12f0:	8f 77       	andi	r24, 0x7F	; 127
    12f2:	90 70       	andi	r25, 0x00	; 0
    12f4:	a0 70       	andi	r26, 0x00	; 0
    12f6:	b0 70       	andi	r27, 0x00	; 0
    12f8:	80 34       	cpi	r24, 0x40	; 64
    12fa:	91 05       	cpc	r25, r1
    12fc:	a1 05       	cpc	r26, r1
    12fe:	b1 05       	cpc	r27, r1
    1300:	39 f4       	brne	.+14     	; 0x1310 <__pack_f+0xf0>
    1302:	27 ff       	sbrs	r18, 7
    1304:	09 c0       	rjmp	.+18     	; 0x1318 <__pack_f+0xf8>
    1306:	20 5c       	subi	r18, 0xC0	; 192
    1308:	3f 4f       	sbci	r19, 0xFF	; 255
    130a:	4f 4f       	sbci	r20, 0xFF	; 255
    130c:	5f 4f       	sbci	r21, 0xFF	; 255
    130e:	04 c0       	rjmp	.+8      	; 0x1318 <__pack_f+0xf8>
    1310:	21 5c       	subi	r18, 0xC1	; 193
    1312:	3f 4f       	sbci	r19, 0xFF	; 255
    1314:	4f 4f       	sbci	r20, 0xFF	; 255
    1316:	5f 4f       	sbci	r21, 0xFF	; 255
    1318:	80 e0       	ldi	r24, 0x00	; 0
    131a:	90 e0       	ldi	r25, 0x00	; 0
    131c:	20 30       	cpi	r18, 0x00	; 0
    131e:	60 e0       	ldi	r22, 0x00	; 0
    1320:	36 07       	cpc	r19, r22
    1322:	60 e0       	ldi	r22, 0x00	; 0
    1324:	46 07       	cpc	r20, r22
    1326:	60 e4       	ldi	r22, 0x40	; 64
    1328:	56 07       	cpc	r21, r22
    132a:	10 f0       	brcs	.+4      	; 0x1330 <__pack_f+0x110>
    132c:	81 e0       	ldi	r24, 0x01	; 1
    132e:	90 e0       	ldi	r25, 0x00	; 0
    1330:	fc 01       	movw	r30, r24
    1332:	23 c0       	rjmp	.+70     	; 0x137a <__pack_f+0x15a>
    1334:	80 38       	cpi	r24, 0x80	; 128
    1336:	91 05       	cpc	r25, r1
    1338:	44 f5       	brge	.+80     	; 0x138a <__pack_f+0x16a>
    133a:	fc 01       	movw	r30, r24
    133c:	e1 58       	subi	r30, 0x81	; 129
    133e:	ff 4f       	sbci	r31, 0xFF	; 255
    1340:	da 01       	movw	r26, r20
    1342:	c9 01       	movw	r24, r18
    1344:	8f 77       	andi	r24, 0x7F	; 127
    1346:	90 70       	andi	r25, 0x00	; 0
    1348:	a0 70       	andi	r26, 0x00	; 0
    134a:	b0 70       	andi	r27, 0x00	; 0
    134c:	80 34       	cpi	r24, 0x40	; 64
    134e:	91 05       	cpc	r25, r1
    1350:	a1 05       	cpc	r26, r1
    1352:	b1 05       	cpc	r27, r1
    1354:	39 f4       	brne	.+14     	; 0x1364 <__pack_f+0x144>
    1356:	27 ff       	sbrs	r18, 7
    1358:	09 c0       	rjmp	.+18     	; 0x136c <__pack_f+0x14c>
    135a:	20 5c       	subi	r18, 0xC0	; 192
    135c:	3f 4f       	sbci	r19, 0xFF	; 255
    135e:	4f 4f       	sbci	r20, 0xFF	; 255
    1360:	5f 4f       	sbci	r21, 0xFF	; 255
    1362:	04 c0       	rjmp	.+8      	; 0x136c <__pack_f+0x14c>
    1364:	21 5c       	subi	r18, 0xC1	; 193
    1366:	3f 4f       	sbci	r19, 0xFF	; 255
    1368:	4f 4f       	sbci	r20, 0xFF	; 255
    136a:	5f 4f       	sbci	r21, 0xFF	; 255
    136c:	57 ff       	sbrs	r21, 7
    136e:	05 c0       	rjmp	.+10     	; 0x137a <__pack_f+0x15a>
    1370:	56 95       	lsr	r21
    1372:	47 95       	ror	r20
    1374:	37 95       	ror	r19
    1376:	27 95       	ror	r18
    1378:	31 96       	adiw	r30, 0x01	; 1
    137a:	87 e0       	ldi	r24, 0x07	; 7
    137c:	56 95       	lsr	r21
    137e:	47 95       	ror	r20
    1380:	37 95       	ror	r19
    1382:	27 95       	ror	r18
    1384:	8a 95       	dec	r24
    1386:	d1 f7       	brne	.-12     	; 0x137c <__pack_f+0x15c>
    1388:	06 c0       	rjmp	.+12     	; 0x1396 <__pack_f+0x176>
    138a:	20 e0       	ldi	r18, 0x00	; 0
    138c:	30 e0       	ldi	r19, 0x00	; 0
    138e:	40 e0       	ldi	r20, 0x00	; 0
    1390:	50 e0       	ldi	r21, 0x00	; 0
    1392:	ef ef       	ldi	r30, 0xFF	; 255
    1394:	f0 e0       	ldi	r31, 0x00	; 0
    1396:	e2 2e       	mov	r14, r18
    1398:	f3 2e       	mov	r15, r19
    139a:	94 2f       	mov	r25, r20
    139c:	9f 77       	andi	r25, 0x7F	; 127
    139e:	80 2f       	mov	r24, r16
    13a0:	80 78       	andi	r24, 0x80	; 128
    13a2:	89 2b       	or	r24, r25
    13a4:	9e 2f       	mov	r25, r30
    13a6:	97 95       	ror	r25
    13a8:	99 27       	eor	r25, r25
    13aa:	97 95       	ror	r25
    13ac:	8f 77       	andi	r24, 0x7F	; 127
    13ae:	08 2f       	mov	r16, r24
    13b0:	09 2b       	or	r16, r25
    13b2:	9e 2f       	mov	r25, r30
    13b4:	96 95       	lsr	r25
    13b6:	81 2f       	mov	r24, r17
    13b8:	80 78       	andi	r24, 0x80	; 128
    13ba:	89 2b       	or	r24, r25
    13bc:	97 94       	ror	r9
    13be:	99 24       	eor	r9, r9
    13c0:	97 94       	ror	r9
    13c2:	8f 77       	andi	r24, 0x7F	; 127
    13c4:	18 2f       	mov	r17, r24
    13c6:	19 29       	or	r17, r9
    13c8:	c8 01       	movw	r24, r16
    13ca:	b7 01       	movw	r22, r14
    13cc:	1f 91       	pop	r17
    13ce:	0f 91       	pop	r16
    13d0:	ff 90       	pop	r15
    13d2:	ef 90       	pop	r14
    13d4:	df 90       	pop	r13
    13d6:	cf 90       	pop	r12
    13d8:	bf 90       	pop	r11
    13da:	af 90       	pop	r10
    13dc:	9f 90       	pop	r9
    13de:	08 95       	ret

000013e0 <__unpack_f>:
    13e0:	cf 93       	push	r28
    13e2:	df 93       	push	r29
    13e4:	fc 01       	movw	r30, r24
    13e6:	db 01       	movw	r26, r22
    13e8:	20 81       	ld	r18, Z
    13ea:	31 81       	ldd	r19, Z+1	; 0x01
    13ec:	92 81       	ldd	r25, Z+2	; 0x02
    13ee:	49 2f       	mov	r20, r25
    13f0:	4f 77       	andi	r20, 0x7F	; 127
    13f2:	50 e0       	ldi	r21, 0x00	; 0
    13f4:	99 1f       	adc	r25, r25
    13f6:	99 27       	eor	r25, r25
    13f8:	99 1f       	adc	r25, r25
    13fa:	83 81       	ldd	r24, Z+3	; 0x03
    13fc:	e8 2f       	mov	r30, r24
    13fe:	ee 0f       	add	r30, r30
    1400:	e9 2b       	or	r30, r25
    1402:	6e 2f       	mov	r22, r30
    1404:	70 e0       	ldi	r23, 0x00	; 0
    1406:	88 1f       	adc	r24, r24
    1408:	88 27       	eor	r24, r24
    140a:	88 1f       	adc	r24, r24
    140c:	ed 01       	movw	r28, r26
    140e:	89 83       	std	Y+1, r24	; 0x01
    1410:	ee 23       	and	r30, r30
    1412:	71 f5       	brne	.+92     	; 0x1470 <__unpack_f+0x90>
    1414:	21 15       	cp	r18, r1
    1416:	31 05       	cpc	r19, r1
    1418:	41 05       	cpc	r20, r1
    141a:	51 05       	cpc	r21, r1
    141c:	11 f4       	brne	.+4      	; 0x1422 <__unpack_f+0x42>
    141e:	82 e0       	ldi	r24, 0x02	; 2
    1420:	2f c0       	rjmp	.+94     	; 0x1480 <__unpack_f+0xa0>
    1422:	6e 57       	subi	r22, 0x7E	; 126
    1424:	70 40       	sbci	r23, 0x00	; 0
    1426:	fd 01       	movw	r30, r26
    1428:	73 83       	std	Z+3, r23	; 0x03
    142a:	62 83       	std	Z+2, r22	; 0x02
    142c:	67 e0       	ldi	r22, 0x07	; 7
    142e:	22 0f       	add	r18, r18
    1430:	33 1f       	adc	r19, r19
    1432:	44 1f       	adc	r20, r20
    1434:	55 1f       	adc	r21, r21
    1436:	6a 95       	dec	r22
    1438:	d1 f7       	brne	.-12     	; 0x142e <__unpack_f+0x4e>
    143a:	83 e0       	ldi	r24, 0x03	; 3
    143c:	8c 93       	st	X, r24
    143e:	0a c0       	rjmp	.+20     	; 0x1454 <__unpack_f+0x74>
    1440:	22 0f       	add	r18, r18
    1442:	33 1f       	adc	r19, r19
    1444:	44 1f       	adc	r20, r20
    1446:	55 1f       	adc	r21, r21
    1448:	ed 01       	movw	r28, r26
    144a:	8a 81       	ldd	r24, Y+2	; 0x02
    144c:	9b 81       	ldd	r25, Y+3	; 0x03
    144e:	01 97       	sbiw	r24, 0x01	; 1
    1450:	9b 83       	std	Y+3, r25	; 0x03
    1452:	8a 83       	std	Y+2, r24	; 0x02
    1454:	20 30       	cpi	r18, 0x00	; 0
    1456:	e0 e0       	ldi	r30, 0x00	; 0
    1458:	3e 07       	cpc	r19, r30
    145a:	e0 e0       	ldi	r30, 0x00	; 0
    145c:	4e 07       	cpc	r20, r30
    145e:	e0 e4       	ldi	r30, 0x40	; 64
    1460:	5e 07       	cpc	r21, r30
    1462:	70 f3       	brcs	.-36     	; 0x1440 <__unpack_f+0x60>
    1464:	ed 01       	movw	r28, r26
    1466:	2c 83       	std	Y+4, r18	; 0x04
    1468:	3d 83       	std	Y+5, r19	; 0x05
    146a:	4e 83       	std	Y+6, r20	; 0x06
    146c:	5f 83       	std	Y+7, r21	; 0x07
    146e:	25 c0       	rjmp	.+74     	; 0x14ba <__unpack_f+0xda>
    1470:	ef 3f       	cpi	r30, 0xFF	; 255
    1472:	79 f4       	brne	.+30     	; 0x1492 <__unpack_f+0xb2>
    1474:	21 15       	cp	r18, r1
    1476:	31 05       	cpc	r19, r1
    1478:	41 05       	cpc	r20, r1
    147a:	51 05       	cpc	r21, r1
    147c:	19 f4       	brne	.+6      	; 0x1484 <__unpack_f+0xa4>
    147e:	84 e0       	ldi	r24, 0x04	; 4
    1480:	8c 93       	st	X, r24
    1482:	1b c0       	rjmp	.+54     	; 0x14ba <__unpack_f+0xda>
    1484:	44 ff       	sbrs	r20, 4
    1486:	03 c0       	rjmp	.+6      	; 0x148e <__unpack_f+0xae>
    1488:	81 e0       	ldi	r24, 0x01	; 1
    148a:	8c 93       	st	X, r24
    148c:	11 c0       	rjmp	.+34     	; 0x14b0 <__unpack_f+0xd0>
    148e:	1c 92       	st	X, r1
    1490:	0f c0       	rjmp	.+30     	; 0x14b0 <__unpack_f+0xd0>
    1492:	6f 57       	subi	r22, 0x7F	; 127
    1494:	70 40       	sbci	r23, 0x00	; 0
    1496:	ed 01       	movw	r28, r26
    1498:	7b 83       	std	Y+3, r23	; 0x03
    149a:	6a 83       	std	Y+2, r22	; 0x02
    149c:	83 e0       	ldi	r24, 0x03	; 3
    149e:	8c 93       	st	X, r24
    14a0:	87 e0       	ldi	r24, 0x07	; 7
    14a2:	22 0f       	add	r18, r18
    14a4:	33 1f       	adc	r19, r19
    14a6:	44 1f       	adc	r20, r20
    14a8:	55 1f       	adc	r21, r21
    14aa:	8a 95       	dec	r24
    14ac:	d1 f7       	brne	.-12     	; 0x14a2 <__unpack_f+0xc2>
    14ae:	50 64       	ori	r21, 0x40	; 64
    14b0:	fd 01       	movw	r30, r26
    14b2:	24 83       	std	Z+4, r18	; 0x04
    14b4:	35 83       	std	Z+5, r19	; 0x05
    14b6:	46 83       	std	Z+6, r20	; 0x06
    14b8:	57 83       	std	Z+7, r21	; 0x07
    14ba:	df 91       	pop	r29
    14bc:	cf 91       	pop	r28
    14be:	08 95       	ret

000014c0 <strcat>:
    14c0:	fb 01       	movw	r30, r22
    14c2:	dc 01       	movw	r26, r24
    14c4:	0d 90       	ld	r0, X+
    14c6:	00 20       	and	r0, r0
    14c8:	e9 f7       	brne	.-6      	; 0x14c4 <strcat+0x4>
    14ca:	11 97       	sbiw	r26, 0x01	; 1
    14cc:	01 90       	ld	r0, Z+
    14ce:	0d 92       	st	X+, r0
    14d0:	00 20       	and	r0, r0
    14d2:	e1 f7       	brne	.-8      	; 0x14cc <strcat+0xc>
    14d4:	08 95       	ret

000014d6 <itoa>:
    14d6:	fb 01       	movw	r30, r22
    14d8:	9f 01       	movw	r18, r30
    14da:	e8 94       	clt
    14dc:	42 30       	cpi	r20, 0x02	; 2
    14de:	c4 f0       	brlt	.+48     	; 0x1510 <itoa+0x3a>
    14e0:	45 32       	cpi	r20, 0x25	; 37
    14e2:	b4 f4       	brge	.+44     	; 0x1510 <itoa+0x3a>
    14e4:	4a 30       	cpi	r20, 0x0A	; 10
    14e6:	29 f4       	brne	.+10     	; 0x14f2 <itoa+0x1c>
    14e8:	97 fb       	bst	r25, 7
    14ea:	1e f4       	brtc	.+6      	; 0x14f2 <itoa+0x1c>
    14ec:	90 95       	com	r25
    14ee:	81 95       	neg	r24
    14f0:	9f 4f       	sbci	r25, 0xFF	; 255
    14f2:	64 2f       	mov	r22, r20
    14f4:	77 27       	eor	r23, r23
    14f6:	0e 94 6c 0d 	call	0x1ad8	; 0x1ad8 <__udivmodhi4>
    14fa:	80 5d       	subi	r24, 0xD0	; 208
    14fc:	8a 33       	cpi	r24, 0x3A	; 58
    14fe:	0c f0       	brlt	.+2      	; 0x1502 <itoa+0x2c>
    1500:	89 5d       	subi	r24, 0xD9	; 217
    1502:	81 93       	st	Z+, r24
    1504:	cb 01       	movw	r24, r22
    1506:	00 97       	sbiw	r24, 0x00	; 0
    1508:	a1 f7       	brne	.-24     	; 0x14f2 <itoa+0x1c>
    150a:	16 f4       	brtc	.+4      	; 0x1510 <itoa+0x3a>
    150c:	5d e2       	ldi	r21, 0x2D	; 45
    150e:	51 93       	st	Z+, r21
    1510:	10 82       	st	Z, r1
    1512:	c9 01       	movw	r24, r18
    1514:	0c 94 bf 0c 	jmp	0x197e	; 0x197e <strrev>

00001518 <sprintf>:
    1518:	a0 e1       	ldi	r26, 0x10	; 16
    151a:	b0 e0       	ldi	r27, 0x00	; 0
    151c:	e2 e9       	ldi	r30, 0x92	; 146
    151e:	fa e0       	ldi	r31, 0x0A	; 10
    1520:	0c 94 8e 0d 	jmp	0x1b1c	; 0x1b1c <__prologue_saves__+0x1c>
    1524:	0f 89       	ldd	r16, Y+23	; 0x17
    1526:	18 8d       	ldd	r17, Y+24	; 0x18
    1528:	86 e0       	ldi	r24, 0x06	; 6
    152a:	8e 83       	std	Y+6, r24	; 0x06
    152c:	1c 83       	std	Y+4, r17	; 0x04
    152e:	0b 83       	std	Y+3, r16	; 0x03
    1530:	8f ef       	ldi	r24, 0xFF	; 255
    1532:	9f e7       	ldi	r25, 0x7F	; 127
    1534:	98 87       	std	Y+8, r25	; 0x08
    1536:	8f 83       	std	Y+7, r24	; 0x07
    1538:	ae 01       	movw	r20, r28
    153a:	45 5e       	subi	r20, 0xE5	; 229
    153c:	5f 4f       	sbci	r21, 0xFF	; 255
    153e:	5a 83       	std	Y+2, r21	; 0x02
    1540:	49 83       	std	Y+1, r20	; 0x01
    1542:	69 8d       	ldd	r22, Y+25	; 0x19
    1544:	7a 8d       	ldd	r23, Y+26	; 0x1a
    1546:	ce 01       	movw	r24, r28
    1548:	03 96       	adiw	r24, 0x03	; 3
    154a:	0e 94 b1 0a 	call	0x1562	; 0x1562 <vfprintf>
    154e:	29 85       	ldd	r18, Y+9	; 0x09
    1550:	3a 85       	ldd	r19, Y+10	; 0x0a
    1552:	02 0f       	add	r16, r18
    1554:	13 1f       	adc	r17, r19
    1556:	f8 01       	movw	r30, r16
    1558:	10 82       	st	Z, r1
    155a:	e4 e0       	ldi	r30, 0x04	; 4
    155c:	60 96       	adiw	r28, 0x10	; 16
    155e:	0c 94 aa 0d 	jmp	0x1b54	; 0x1b54 <__epilogue_restores__+0x1c>

00001562 <vfprintf>:
    1562:	2f 92       	push	r2
    1564:	3f 92       	push	r3
    1566:	5f 92       	push	r5
    1568:	6f 92       	push	r6
    156a:	7f 92       	push	r7
    156c:	8f 92       	push	r8
    156e:	9f 92       	push	r9
    1570:	af 92       	push	r10
    1572:	bf 92       	push	r11
    1574:	cf 92       	push	r12
    1576:	df 92       	push	r13
    1578:	ef 92       	push	r14
    157a:	ff 92       	push	r15
    157c:	0f 93       	push	r16
    157e:	1f 93       	push	r17
    1580:	cf 93       	push	r28
    1582:	df 93       	push	r29
    1584:	cd b7       	in	r28, 0x3d	; 61
    1586:	de b7       	in	r29, 0x3e	; 62
    1588:	2b 97       	sbiw	r28, 0x0b	; 11
    158a:	0f b6       	in	r0, 0x3f	; 63
    158c:	f8 94       	cli
    158e:	de bf       	out	0x3e, r29	; 62
    1590:	0f be       	out	0x3f, r0	; 63
    1592:	cd bf       	out	0x3d, r28	; 61
    1594:	3c 01       	movw	r6, r24
    1596:	4b 01       	movw	r8, r22
    1598:	6a 01       	movw	r12, r20
    159a:	fc 01       	movw	r30, r24
    159c:	17 82       	std	Z+7, r1	; 0x07
    159e:	16 82       	std	Z+6, r1	; 0x06
    15a0:	83 81       	ldd	r24, Z+3	; 0x03
    15a2:	81 fd       	sbrc	r24, 1
    15a4:	03 c0       	rjmp	.+6      	; 0x15ac <vfprintf+0x4a>
    15a6:	8f ef       	ldi	r24, 0xFF	; 255
    15a8:	9f ef       	ldi	r25, 0xFF	; 255
    15aa:	bb c1       	rjmp	.+886    	; 0x1922 <vfprintf+0x3c0>
    15ac:	1e 01       	movw	r2, r28
    15ae:	08 94       	sec
    15b0:	21 1c       	adc	r2, r1
    15b2:	31 1c       	adc	r3, r1
    15b4:	f3 01       	movw	r30, r6
    15b6:	33 81       	ldd	r19, Z+3	; 0x03
    15b8:	f4 01       	movw	r30, r8
    15ba:	33 fd       	sbrc	r19, 3
    15bc:	85 91       	lpm	r24, Z+
    15be:	33 ff       	sbrs	r19, 3
    15c0:	81 91       	ld	r24, Z+
    15c2:	4f 01       	movw	r8, r30
    15c4:	88 23       	and	r24, r24
    15c6:	09 f4       	brne	.+2      	; 0x15ca <vfprintf+0x68>
    15c8:	a9 c1       	rjmp	.+850    	; 0x191c <vfprintf+0x3ba>
    15ca:	85 32       	cpi	r24, 0x25	; 37
    15cc:	39 f4       	brne	.+14     	; 0x15dc <vfprintf+0x7a>
    15ce:	33 fd       	sbrc	r19, 3
    15d0:	85 91       	lpm	r24, Z+
    15d2:	33 ff       	sbrs	r19, 3
    15d4:	81 91       	ld	r24, Z+
    15d6:	4f 01       	movw	r8, r30
    15d8:	85 32       	cpi	r24, 0x25	; 37
    15da:	29 f4       	brne	.+10     	; 0x15e6 <vfprintf+0x84>
    15dc:	b3 01       	movw	r22, r6
    15de:	90 e0       	ldi	r25, 0x00	; 0
    15e0:	0e 94 cf 0c 	call	0x199e	; 0x199e <fputc>
    15e4:	e7 cf       	rjmp	.-50     	; 0x15b4 <vfprintf+0x52>
    15e6:	98 2f       	mov	r25, r24
    15e8:	aa 24       	eor	r10, r10
    15ea:	10 e0       	ldi	r17, 0x00	; 0
    15ec:	55 24       	eor	r5, r5
    15ee:	10 32       	cpi	r17, 0x20	; 32
    15f0:	b0 f4       	brcc	.+44     	; 0x161e <vfprintf+0xbc>
    15f2:	9b 32       	cpi	r25, 0x2B	; 43
    15f4:	69 f0       	breq	.+26     	; 0x1610 <vfprintf+0xae>
    15f6:	9c 32       	cpi	r25, 0x2C	; 44
    15f8:	28 f4       	brcc	.+10     	; 0x1604 <vfprintf+0xa2>
    15fa:	90 32       	cpi	r25, 0x20	; 32
    15fc:	51 f0       	breq	.+20     	; 0x1612 <vfprintf+0xb0>
    15fe:	93 32       	cpi	r25, 0x23	; 35
    1600:	71 f4       	brne	.+28     	; 0x161e <vfprintf+0xbc>
    1602:	0b c0       	rjmp	.+22     	; 0x161a <vfprintf+0xb8>
    1604:	9d 32       	cpi	r25, 0x2D	; 45
    1606:	39 f0       	breq	.+14     	; 0x1616 <vfprintf+0xb4>
    1608:	90 33       	cpi	r25, 0x30	; 48
    160a:	49 f4       	brne	.+18     	; 0x161e <vfprintf+0xbc>
    160c:	11 60       	ori	r17, 0x01	; 1
    160e:	2a c0       	rjmp	.+84     	; 0x1664 <vfprintf+0x102>
    1610:	12 60       	ori	r17, 0x02	; 2
    1612:	14 60       	ori	r17, 0x04	; 4
    1614:	27 c0       	rjmp	.+78     	; 0x1664 <vfprintf+0x102>
    1616:	18 60       	ori	r17, 0x08	; 8
    1618:	25 c0       	rjmp	.+74     	; 0x1664 <vfprintf+0x102>
    161a:	10 61       	ori	r17, 0x10	; 16
    161c:	23 c0       	rjmp	.+70     	; 0x1664 <vfprintf+0x102>
    161e:	17 fd       	sbrc	r17, 7
    1620:	2a c0       	rjmp	.+84     	; 0x1676 <vfprintf+0x114>
    1622:	29 2f       	mov	r18, r25
    1624:	20 53       	subi	r18, 0x30	; 48
    1626:	2a 30       	cpi	r18, 0x0A	; 10
    1628:	88 f4       	brcc	.+34     	; 0x164c <vfprintf+0xea>
    162a:	16 ff       	sbrs	r17, 6
    162c:	07 c0       	rjmp	.+14     	; 0x163c <vfprintf+0xda>
    162e:	8a e0       	ldi	r24, 0x0A	; 10
    1630:	a8 9e       	mul	r10, r24
    1632:	c0 01       	movw	r24, r0
    1634:	11 24       	eor	r1, r1
    1636:	a2 2e       	mov	r10, r18
    1638:	a8 0e       	add	r10, r24
    163a:	14 c0       	rjmp	.+40     	; 0x1664 <vfprintf+0x102>
    163c:	8a e0       	ldi	r24, 0x0A	; 10
    163e:	58 9e       	mul	r5, r24
    1640:	c0 01       	movw	r24, r0
    1642:	11 24       	eor	r1, r1
    1644:	52 2e       	mov	r5, r18
    1646:	58 0e       	add	r5, r24
    1648:	10 62       	ori	r17, 0x20	; 32
    164a:	0c c0       	rjmp	.+24     	; 0x1664 <vfprintf+0x102>
    164c:	9e 32       	cpi	r25, 0x2E	; 46
    164e:	21 f4       	brne	.+8      	; 0x1658 <vfprintf+0xf6>
    1650:	16 fd       	sbrc	r17, 6
    1652:	64 c1       	rjmp	.+712    	; 0x191c <vfprintf+0x3ba>
    1654:	10 64       	ori	r17, 0x40	; 64
    1656:	06 c0       	rjmp	.+12     	; 0x1664 <vfprintf+0x102>
    1658:	9c 36       	cpi	r25, 0x6C	; 108
    165a:	11 f4       	brne	.+4      	; 0x1660 <vfprintf+0xfe>
    165c:	10 68       	ori	r17, 0x80	; 128
    165e:	02 c0       	rjmp	.+4      	; 0x1664 <vfprintf+0x102>
    1660:	98 36       	cpi	r25, 0x68	; 104
    1662:	49 f4       	brne	.+18     	; 0x1676 <vfprintf+0x114>
    1664:	f4 01       	movw	r30, r8
    1666:	33 fd       	sbrc	r19, 3
    1668:	95 91       	lpm	r25, Z+
    166a:	33 ff       	sbrs	r19, 3
    166c:	91 91       	ld	r25, Z+
    166e:	4f 01       	movw	r8, r30
    1670:	99 23       	and	r25, r25
    1672:	09 f0       	breq	.+2      	; 0x1676 <vfprintf+0x114>
    1674:	bc cf       	rjmp	.-136    	; 0x15ee <vfprintf+0x8c>
    1676:	89 2f       	mov	r24, r25
    1678:	85 54       	subi	r24, 0x45	; 69
    167a:	83 30       	cpi	r24, 0x03	; 3
    167c:	18 f0       	brcs	.+6      	; 0x1684 <vfprintf+0x122>
    167e:	80 52       	subi	r24, 0x20	; 32
    1680:	83 30       	cpi	r24, 0x03	; 3
    1682:	38 f4       	brcc	.+14     	; 0x1692 <vfprintf+0x130>
    1684:	24 e0       	ldi	r18, 0x04	; 4
    1686:	30 e0       	ldi	r19, 0x00	; 0
    1688:	c2 0e       	add	r12, r18
    168a:	d3 1e       	adc	r13, r19
    168c:	8f e3       	ldi	r24, 0x3F	; 63
    168e:	89 83       	std	Y+1, r24	; 0x01
    1690:	0f c0       	rjmp	.+30     	; 0x16b0 <vfprintf+0x14e>
    1692:	93 36       	cpi	r25, 0x63	; 99
    1694:	31 f0       	breq	.+12     	; 0x16a2 <vfprintf+0x140>
    1696:	93 37       	cpi	r25, 0x73	; 115
    1698:	81 f0       	breq	.+32     	; 0x16ba <vfprintf+0x158>
    169a:	93 35       	cpi	r25, 0x53	; 83
    169c:	09 f0       	breq	.+2      	; 0x16a0 <vfprintf+0x13e>
    169e:	56 c0       	rjmp	.+172    	; 0x174c <vfprintf+0x1ea>
    16a0:	20 c0       	rjmp	.+64     	; 0x16e2 <vfprintf+0x180>
    16a2:	f6 01       	movw	r30, r12
    16a4:	80 81       	ld	r24, Z
    16a6:	89 83       	std	Y+1, r24	; 0x01
    16a8:	22 e0       	ldi	r18, 0x02	; 2
    16aa:	30 e0       	ldi	r19, 0x00	; 0
    16ac:	c2 0e       	add	r12, r18
    16ae:	d3 1e       	adc	r13, r19
    16b0:	71 01       	movw	r14, r2
    16b2:	81 e0       	ldi	r24, 0x01	; 1
    16b4:	a8 2e       	mov	r10, r24
    16b6:	b1 2c       	mov	r11, r1
    16b8:	12 c0       	rjmp	.+36     	; 0x16de <vfprintf+0x17c>
    16ba:	f6 01       	movw	r30, r12
    16bc:	e0 80       	ld	r14, Z
    16be:	f1 80       	ldd	r15, Z+1	; 0x01
    16c0:	16 fd       	sbrc	r17, 6
    16c2:	03 c0       	rjmp	.+6      	; 0x16ca <vfprintf+0x168>
    16c4:	6f ef       	ldi	r22, 0xFF	; 255
    16c6:	7f ef       	ldi	r23, 0xFF	; 255
    16c8:	02 c0       	rjmp	.+4      	; 0x16ce <vfprintf+0x16c>
    16ca:	6a 2d       	mov	r22, r10
    16cc:	70 e0       	ldi	r23, 0x00	; 0
    16ce:	22 e0       	ldi	r18, 0x02	; 2
    16d0:	30 e0       	ldi	r19, 0x00	; 0
    16d2:	c2 0e       	add	r12, r18
    16d4:	d3 1e       	adc	r13, r19
    16d6:	c7 01       	movw	r24, r14
    16d8:	0e 94 b4 0c 	call	0x1968	; 0x1968 <strnlen>
    16dc:	5c 01       	movw	r10, r24
    16de:	1f 77       	andi	r17, 0x7F	; 127
    16e0:	13 c0       	rjmp	.+38     	; 0x1708 <vfprintf+0x1a6>
    16e2:	f6 01       	movw	r30, r12
    16e4:	e0 80       	ld	r14, Z
    16e6:	f1 80       	ldd	r15, Z+1	; 0x01
    16e8:	16 fd       	sbrc	r17, 6
    16ea:	03 c0       	rjmp	.+6      	; 0x16f2 <vfprintf+0x190>
    16ec:	6f ef       	ldi	r22, 0xFF	; 255
    16ee:	7f ef       	ldi	r23, 0xFF	; 255
    16f0:	02 c0       	rjmp	.+4      	; 0x16f6 <vfprintf+0x194>
    16f2:	6a 2d       	mov	r22, r10
    16f4:	70 e0       	ldi	r23, 0x00	; 0
    16f6:	22 e0       	ldi	r18, 0x02	; 2
    16f8:	30 e0       	ldi	r19, 0x00	; 0
    16fa:	c2 0e       	add	r12, r18
    16fc:	d3 1e       	adc	r13, r19
    16fe:	c7 01       	movw	r24, r14
    1700:	0e 94 a9 0c 	call	0x1952	; 0x1952 <strnlen_P>
    1704:	5c 01       	movw	r10, r24
    1706:	10 68       	ori	r17, 0x80	; 128
    1708:	13 ff       	sbrs	r17, 3
    170a:	07 c0       	rjmp	.+14     	; 0x171a <vfprintf+0x1b8>
    170c:	1b c0       	rjmp	.+54     	; 0x1744 <vfprintf+0x1e2>
    170e:	b3 01       	movw	r22, r6
    1710:	80 e2       	ldi	r24, 0x20	; 32
    1712:	90 e0       	ldi	r25, 0x00	; 0
    1714:	0e 94 cf 0c 	call	0x199e	; 0x199e <fputc>
    1718:	5a 94       	dec	r5
    171a:	85 2d       	mov	r24, r5
    171c:	90 e0       	ldi	r25, 0x00	; 0
    171e:	a8 16       	cp	r10, r24
    1720:	b9 06       	cpc	r11, r25
    1722:	a8 f3       	brcs	.-22     	; 0x170e <vfprintf+0x1ac>
    1724:	0f c0       	rjmp	.+30     	; 0x1744 <vfprintf+0x1e2>
    1726:	f7 01       	movw	r30, r14
    1728:	17 fd       	sbrc	r17, 7
    172a:	85 91       	lpm	r24, Z+
    172c:	17 ff       	sbrs	r17, 7
    172e:	81 91       	ld	r24, Z+
    1730:	7f 01       	movw	r14, r30
    1732:	b3 01       	movw	r22, r6
    1734:	90 e0       	ldi	r25, 0x00	; 0
    1736:	0e 94 cf 0c 	call	0x199e	; 0x199e <fputc>
    173a:	51 10       	cpse	r5, r1
    173c:	5a 94       	dec	r5
    173e:	08 94       	sec
    1740:	a1 08       	sbc	r10, r1
    1742:	b1 08       	sbc	r11, r1
    1744:	a1 14       	cp	r10, r1
    1746:	b1 04       	cpc	r11, r1
    1748:	71 f7       	brne	.-36     	; 0x1726 <vfprintf+0x1c4>
    174a:	e5 c0       	rjmp	.+458    	; 0x1916 <vfprintf+0x3b4>
    174c:	94 36       	cpi	r25, 0x64	; 100
    174e:	11 f0       	breq	.+4      	; 0x1754 <vfprintf+0x1f2>
    1750:	99 36       	cpi	r25, 0x69	; 105
    1752:	69 f5       	brne	.+90     	; 0x17ae <vfprintf+0x24c>
    1754:	17 ff       	sbrs	r17, 7
    1756:	0a c0       	rjmp	.+20     	; 0x176c <vfprintf+0x20a>
    1758:	f6 01       	movw	r30, r12
    175a:	60 81       	ld	r22, Z
    175c:	71 81       	ldd	r23, Z+1	; 0x01
    175e:	82 81       	ldd	r24, Z+2	; 0x02
    1760:	93 81       	ldd	r25, Z+3	; 0x03
    1762:	24 e0       	ldi	r18, 0x04	; 4
    1764:	30 e0       	ldi	r19, 0x00	; 0
    1766:	c2 0e       	add	r12, r18
    1768:	d3 1e       	adc	r13, r19
    176a:	0d c0       	rjmp	.+26     	; 0x1786 <vfprintf+0x224>
    176c:	f6 01       	movw	r30, r12
    176e:	80 81       	ld	r24, Z
    1770:	91 81       	ldd	r25, Z+1	; 0x01
    1772:	9c 01       	movw	r18, r24
    1774:	b9 01       	movw	r22, r18
    1776:	88 27       	eor	r24, r24
    1778:	77 fd       	sbrc	r23, 7
    177a:	80 95       	com	r24
    177c:	98 2f       	mov	r25, r24
    177e:	42 e0       	ldi	r20, 0x02	; 2
    1780:	50 e0       	ldi	r21, 0x00	; 0
    1782:	c4 0e       	add	r12, r20
    1784:	d5 1e       	adc	r13, r21
    1786:	01 2f       	mov	r16, r17
    1788:	0f 76       	andi	r16, 0x6F	; 111
    178a:	97 ff       	sbrs	r25, 7
    178c:	08 c0       	rjmp	.+16     	; 0x179e <vfprintf+0x23c>
    178e:	90 95       	com	r25
    1790:	80 95       	com	r24
    1792:	70 95       	com	r23
    1794:	61 95       	neg	r22
    1796:	7f 4f       	sbci	r23, 0xFF	; 255
    1798:	8f 4f       	sbci	r24, 0xFF	; 255
    179a:	9f 4f       	sbci	r25, 0xFF	; 255
    179c:	00 68       	ori	r16, 0x80	; 128
    179e:	2a e0       	ldi	r18, 0x0A	; 10
    17a0:	30 e0       	ldi	r19, 0x00	; 0
    17a2:	a1 01       	movw	r20, r2
    17a4:	0e 94 fb 0c 	call	0x19f6	; 0x19f6 <__ultoa_invert>
    17a8:	b8 2e       	mov	r11, r24
    17aa:	b2 18       	sub	r11, r2
    17ac:	3d c0       	rjmp	.+122    	; 0x1828 <vfprintf+0x2c6>
    17ae:	95 37       	cpi	r25, 0x75	; 117
    17b0:	21 f4       	brne	.+8      	; 0x17ba <vfprintf+0x258>
    17b2:	1f 7e       	andi	r17, 0xEF	; 239
    17b4:	2a e0       	ldi	r18, 0x0A	; 10
    17b6:	30 e0       	ldi	r19, 0x00	; 0
    17b8:	1c c0       	rjmp	.+56     	; 0x17f2 <vfprintf+0x290>
    17ba:	19 7f       	andi	r17, 0xF9	; 249
    17bc:	9f 36       	cpi	r25, 0x6F	; 111
    17be:	61 f0       	breq	.+24     	; 0x17d8 <vfprintf+0x276>
    17c0:	90 37       	cpi	r25, 0x70	; 112
    17c2:	20 f4       	brcc	.+8      	; 0x17cc <vfprintf+0x26a>
    17c4:	98 35       	cpi	r25, 0x58	; 88
    17c6:	09 f0       	breq	.+2      	; 0x17ca <vfprintf+0x268>
    17c8:	a9 c0       	rjmp	.+338    	; 0x191c <vfprintf+0x3ba>
    17ca:	0f c0       	rjmp	.+30     	; 0x17ea <vfprintf+0x288>
    17cc:	90 37       	cpi	r25, 0x70	; 112
    17ce:	39 f0       	breq	.+14     	; 0x17de <vfprintf+0x27c>
    17d0:	98 37       	cpi	r25, 0x78	; 120
    17d2:	09 f0       	breq	.+2      	; 0x17d6 <vfprintf+0x274>
    17d4:	a3 c0       	rjmp	.+326    	; 0x191c <vfprintf+0x3ba>
    17d6:	04 c0       	rjmp	.+8      	; 0x17e0 <vfprintf+0x27e>
    17d8:	28 e0       	ldi	r18, 0x08	; 8
    17da:	30 e0       	ldi	r19, 0x00	; 0
    17dc:	0a c0       	rjmp	.+20     	; 0x17f2 <vfprintf+0x290>
    17de:	10 61       	ori	r17, 0x10	; 16
    17e0:	14 fd       	sbrc	r17, 4
    17e2:	14 60       	ori	r17, 0x04	; 4
    17e4:	20 e1       	ldi	r18, 0x10	; 16
    17e6:	30 e0       	ldi	r19, 0x00	; 0
    17e8:	04 c0       	rjmp	.+8      	; 0x17f2 <vfprintf+0x290>
    17ea:	14 fd       	sbrc	r17, 4
    17ec:	16 60       	ori	r17, 0x06	; 6
    17ee:	20 e1       	ldi	r18, 0x10	; 16
    17f0:	32 e0       	ldi	r19, 0x02	; 2
    17f2:	17 ff       	sbrs	r17, 7
    17f4:	08 c0       	rjmp	.+16     	; 0x1806 <vfprintf+0x2a4>
    17f6:	f6 01       	movw	r30, r12
    17f8:	60 81       	ld	r22, Z
    17fa:	71 81       	ldd	r23, Z+1	; 0x01
    17fc:	82 81       	ldd	r24, Z+2	; 0x02
    17fe:	93 81       	ldd	r25, Z+3	; 0x03
    1800:	44 e0       	ldi	r20, 0x04	; 4
    1802:	50 e0       	ldi	r21, 0x00	; 0
    1804:	08 c0       	rjmp	.+16     	; 0x1816 <vfprintf+0x2b4>
    1806:	f6 01       	movw	r30, r12
    1808:	80 81       	ld	r24, Z
    180a:	91 81       	ldd	r25, Z+1	; 0x01
    180c:	bc 01       	movw	r22, r24
    180e:	80 e0       	ldi	r24, 0x00	; 0
    1810:	90 e0       	ldi	r25, 0x00	; 0
    1812:	42 e0       	ldi	r20, 0x02	; 2
    1814:	50 e0       	ldi	r21, 0x00	; 0
    1816:	c4 0e       	add	r12, r20
    1818:	d5 1e       	adc	r13, r21
    181a:	a1 01       	movw	r20, r2
    181c:	0e 94 fb 0c 	call	0x19f6	; 0x19f6 <__ultoa_invert>
    1820:	b8 2e       	mov	r11, r24
    1822:	b2 18       	sub	r11, r2
    1824:	01 2f       	mov	r16, r17
    1826:	0f 77       	andi	r16, 0x7F	; 127
    1828:	06 ff       	sbrs	r16, 6
    182a:	09 c0       	rjmp	.+18     	; 0x183e <vfprintf+0x2dc>
    182c:	0e 7f       	andi	r16, 0xFE	; 254
    182e:	ba 14       	cp	r11, r10
    1830:	30 f4       	brcc	.+12     	; 0x183e <vfprintf+0x2dc>
    1832:	04 ff       	sbrs	r16, 4
    1834:	06 c0       	rjmp	.+12     	; 0x1842 <vfprintf+0x2e0>
    1836:	02 fd       	sbrc	r16, 2
    1838:	04 c0       	rjmp	.+8      	; 0x1842 <vfprintf+0x2e0>
    183a:	0f 7e       	andi	r16, 0xEF	; 239
    183c:	02 c0       	rjmp	.+4      	; 0x1842 <vfprintf+0x2e0>
    183e:	1b 2d       	mov	r17, r11
    1840:	01 c0       	rjmp	.+2      	; 0x1844 <vfprintf+0x2e2>
    1842:	1a 2d       	mov	r17, r10
    1844:	04 ff       	sbrs	r16, 4
    1846:	0c c0       	rjmp	.+24     	; 0x1860 <vfprintf+0x2fe>
    1848:	fe 01       	movw	r30, r28
    184a:	eb 0d       	add	r30, r11
    184c:	f1 1d       	adc	r31, r1
    184e:	80 81       	ld	r24, Z
    1850:	80 33       	cpi	r24, 0x30	; 48
    1852:	11 f4       	brne	.+4      	; 0x1858 <vfprintf+0x2f6>
    1854:	09 7e       	andi	r16, 0xE9	; 233
    1856:	08 c0       	rjmp	.+16     	; 0x1868 <vfprintf+0x306>
    1858:	1f 5f       	subi	r17, 0xFF	; 255
    185a:	02 ff       	sbrs	r16, 2
    185c:	05 c0       	rjmp	.+10     	; 0x1868 <vfprintf+0x306>
    185e:	03 c0       	rjmp	.+6      	; 0x1866 <vfprintf+0x304>
    1860:	80 2f       	mov	r24, r16
    1862:	86 78       	andi	r24, 0x86	; 134
    1864:	09 f0       	breq	.+2      	; 0x1868 <vfprintf+0x306>
    1866:	1f 5f       	subi	r17, 0xFF	; 255
    1868:	e0 2e       	mov	r14, r16
    186a:	03 fd       	sbrc	r16, 3
    186c:	14 c0       	rjmp	.+40     	; 0x1896 <vfprintf+0x334>
    186e:	00 ff       	sbrs	r16, 0
    1870:	0f c0       	rjmp	.+30     	; 0x1890 <vfprintf+0x32e>
    1872:	15 15       	cp	r17, r5
    1874:	10 f0       	brcs	.+4      	; 0x187a <vfprintf+0x318>
    1876:	ab 2c       	mov	r10, r11
    1878:	0b c0       	rjmp	.+22     	; 0x1890 <vfprintf+0x32e>
    187a:	ab 2c       	mov	r10, r11
    187c:	a5 0c       	add	r10, r5
    187e:	a1 1a       	sub	r10, r17
    1880:	15 2d       	mov	r17, r5
    1882:	06 c0       	rjmp	.+12     	; 0x1890 <vfprintf+0x32e>
    1884:	b3 01       	movw	r22, r6
    1886:	80 e2       	ldi	r24, 0x20	; 32
    1888:	90 e0       	ldi	r25, 0x00	; 0
    188a:	0e 94 cf 0c 	call	0x199e	; 0x199e <fputc>
    188e:	1f 5f       	subi	r17, 0xFF	; 255
    1890:	15 15       	cp	r17, r5
    1892:	c0 f3       	brcs	.-16     	; 0x1884 <vfprintf+0x322>
    1894:	04 c0       	rjmp	.+8      	; 0x189e <vfprintf+0x33c>
    1896:	15 15       	cp	r17, r5
    1898:	10 f4       	brcc	.+4      	; 0x189e <vfprintf+0x33c>
    189a:	51 1a       	sub	r5, r17
    189c:	01 c0       	rjmp	.+2      	; 0x18a0 <vfprintf+0x33e>
    189e:	55 24       	eor	r5, r5
    18a0:	e4 fe       	sbrs	r14, 4
    18a2:	10 c0       	rjmp	.+32     	; 0x18c4 <vfprintf+0x362>
    18a4:	b3 01       	movw	r22, r6
    18a6:	80 e3       	ldi	r24, 0x30	; 48
    18a8:	90 e0       	ldi	r25, 0x00	; 0
    18aa:	0e 94 cf 0c 	call	0x199e	; 0x199e <fputc>
    18ae:	e2 fe       	sbrs	r14, 2
    18b0:	1e c0       	rjmp	.+60     	; 0x18ee <vfprintf+0x38c>
    18b2:	e1 fe       	sbrs	r14, 1
    18b4:	03 c0       	rjmp	.+6      	; 0x18bc <vfprintf+0x35a>
    18b6:	88 e5       	ldi	r24, 0x58	; 88
    18b8:	90 e0       	ldi	r25, 0x00	; 0
    18ba:	02 c0       	rjmp	.+4      	; 0x18c0 <vfprintf+0x35e>
    18bc:	88 e7       	ldi	r24, 0x78	; 120
    18be:	90 e0       	ldi	r25, 0x00	; 0
    18c0:	b3 01       	movw	r22, r6
    18c2:	0c c0       	rjmp	.+24     	; 0x18dc <vfprintf+0x37a>
    18c4:	8e 2d       	mov	r24, r14
    18c6:	86 78       	andi	r24, 0x86	; 134
    18c8:	91 f0       	breq	.+36     	; 0x18ee <vfprintf+0x38c>
    18ca:	e1 fe       	sbrs	r14, 1
    18cc:	02 c0       	rjmp	.+4      	; 0x18d2 <vfprintf+0x370>
    18ce:	8b e2       	ldi	r24, 0x2B	; 43
    18d0:	01 c0       	rjmp	.+2      	; 0x18d4 <vfprintf+0x372>
    18d2:	80 e2       	ldi	r24, 0x20	; 32
    18d4:	07 fd       	sbrc	r16, 7
    18d6:	8d e2       	ldi	r24, 0x2D	; 45
    18d8:	b3 01       	movw	r22, r6
    18da:	90 e0       	ldi	r25, 0x00	; 0
    18dc:	0e 94 cf 0c 	call	0x199e	; 0x199e <fputc>
    18e0:	06 c0       	rjmp	.+12     	; 0x18ee <vfprintf+0x38c>
    18e2:	b3 01       	movw	r22, r6
    18e4:	80 e3       	ldi	r24, 0x30	; 48
    18e6:	90 e0       	ldi	r25, 0x00	; 0
    18e8:	0e 94 cf 0c 	call	0x199e	; 0x199e <fputc>
    18ec:	aa 94       	dec	r10
    18ee:	ba 14       	cp	r11, r10
    18f0:	c0 f3       	brcs	.-16     	; 0x18e2 <vfprintf+0x380>
    18f2:	ba 94       	dec	r11
    18f4:	f1 01       	movw	r30, r2
    18f6:	eb 0d       	add	r30, r11
    18f8:	f1 1d       	adc	r31, r1
    18fa:	80 81       	ld	r24, Z
    18fc:	b3 01       	movw	r22, r6
    18fe:	90 e0       	ldi	r25, 0x00	; 0
    1900:	0e 94 cf 0c 	call	0x199e	; 0x199e <fputc>
    1904:	bb 20       	and	r11, r11
    1906:	39 f0       	breq	.+14     	; 0x1916 <vfprintf+0x3b4>
    1908:	f4 cf       	rjmp	.-24     	; 0x18f2 <vfprintf+0x390>
    190a:	b3 01       	movw	r22, r6
    190c:	80 e2       	ldi	r24, 0x20	; 32
    190e:	90 e0       	ldi	r25, 0x00	; 0
    1910:	0e 94 cf 0c 	call	0x199e	; 0x199e <fputc>
    1914:	5a 94       	dec	r5
    1916:	55 20       	and	r5, r5
    1918:	c1 f7       	brne	.-16     	; 0x190a <vfprintf+0x3a8>
    191a:	4c ce       	rjmp	.-872    	; 0x15b4 <vfprintf+0x52>
    191c:	f3 01       	movw	r30, r6
    191e:	86 81       	ldd	r24, Z+6	; 0x06
    1920:	97 81       	ldd	r25, Z+7	; 0x07
    1922:	2b 96       	adiw	r28, 0x0b	; 11
    1924:	0f b6       	in	r0, 0x3f	; 63
    1926:	f8 94       	cli
    1928:	de bf       	out	0x3e, r29	; 62
    192a:	0f be       	out	0x3f, r0	; 63
    192c:	cd bf       	out	0x3d, r28	; 61
    192e:	df 91       	pop	r29
    1930:	cf 91       	pop	r28
    1932:	1f 91       	pop	r17
    1934:	0f 91       	pop	r16
    1936:	ff 90       	pop	r15
    1938:	ef 90       	pop	r14
    193a:	df 90       	pop	r13
    193c:	cf 90       	pop	r12
    193e:	bf 90       	pop	r11
    1940:	af 90       	pop	r10
    1942:	9f 90       	pop	r9
    1944:	8f 90       	pop	r8
    1946:	7f 90       	pop	r7
    1948:	6f 90       	pop	r6
    194a:	5f 90       	pop	r5
    194c:	3f 90       	pop	r3
    194e:	2f 90       	pop	r2
    1950:	08 95       	ret

00001952 <strnlen_P>:
    1952:	fc 01       	movw	r30, r24
    1954:	05 90       	lpm	r0, Z+
    1956:	61 50       	subi	r22, 0x01	; 1
    1958:	70 40       	sbci	r23, 0x00	; 0
    195a:	01 10       	cpse	r0, r1
    195c:	d8 f7       	brcc	.-10     	; 0x1954 <strnlen_P+0x2>
    195e:	80 95       	com	r24
    1960:	90 95       	com	r25
    1962:	8e 0f       	add	r24, r30
    1964:	9f 1f       	adc	r25, r31
    1966:	08 95       	ret

00001968 <strnlen>:
    1968:	fc 01       	movw	r30, r24
    196a:	61 50       	subi	r22, 0x01	; 1
    196c:	70 40       	sbci	r23, 0x00	; 0
    196e:	01 90       	ld	r0, Z+
    1970:	01 10       	cpse	r0, r1
    1972:	d8 f7       	brcc	.-10     	; 0x196a <strnlen+0x2>
    1974:	80 95       	com	r24
    1976:	90 95       	com	r25
    1978:	8e 0f       	add	r24, r30
    197a:	9f 1f       	adc	r25, r31
    197c:	08 95       	ret

0000197e <strrev>:
    197e:	dc 01       	movw	r26, r24
    1980:	fc 01       	movw	r30, r24
    1982:	67 2f       	mov	r22, r23
    1984:	71 91       	ld	r23, Z+
    1986:	77 23       	and	r23, r23
    1988:	e1 f7       	brne	.-8      	; 0x1982 <strrev+0x4>
    198a:	32 97       	sbiw	r30, 0x02	; 2
    198c:	04 c0       	rjmp	.+8      	; 0x1996 <strrev+0x18>
    198e:	7c 91       	ld	r23, X
    1990:	6d 93       	st	X+, r22
    1992:	70 83       	st	Z, r23
    1994:	62 91       	ld	r22, -Z
    1996:	ae 17       	cp	r26, r30
    1998:	bf 07       	cpc	r27, r31
    199a:	c8 f3       	brcs	.-14     	; 0x198e <strrev+0x10>
    199c:	08 95       	ret

0000199e <fputc>:
    199e:	0f 93       	push	r16
    19a0:	1f 93       	push	r17
    19a2:	cf 93       	push	r28
    19a4:	df 93       	push	r29
    19a6:	8c 01       	movw	r16, r24
    19a8:	eb 01       	movw	r28, r22
    19aa:	8b 81       	ldd	r24, Y+3	; 0x03
    19ac:	81 ff       	sbrs	r24, 1
    19ae:	1b c0       	rjmp	.+54     	; 0x19e6 <fputc+0x48>
    19b0:	82 ff       	sbrs	r24, 2
    19b2:	0d c0       	rjmp	.+26     	; 0x19ce <fputc+0x30>
    19b4:	2e 81       	ldd	r18, Y+6	; 0x06
    19b6:	3f 81       	ldd	r19, Y+7	; 0x07
    19b8:	8c 81       	ldd	r24, Y+4	; 0x04
    19ba:	9d 81       	ldd	r25, Y+5	; 0x05
    19bc:	28 17       	cp	r18, r24
    19be:	39 07       	cpc	r19, r25
    19c0:	64 f4       	brge	.+24     	; 0x19da <fputc+0x3c>
    19c2:	e8 81       	ld	r30, Y
    19c4:	f9 81       	ldd	r31, Y+1	; 0x01
    19c6:	01 93       	st	Z+, r16
    19c8:	f9 83       	std	Y+1, r31	; 0x01
    19ca:	e8 83       	st	Y, r30
    19cc:	06 c0       	rjmp	.+12     	; 0x19da <fputc+0x3c>
    19ce:	e8 85       	ldd	r30, Y+8	; 0x08
    19d0:	f9 85       	ldd	r31, Y+9	; 0x09
    19d2:	80 2f       	mov	r24, r16
    19d4:	09 95       	icall
    19d6:	89 2b       	or	r24, r25
    19d8:	31 f4       	brne	.+12     	; 0x19e6 <fputc+0x48>
    19da:	8e 81       	ldd	r24, Y+6	; 0x06
    19dc:	9f 81       	ldd	r25, Y+7	; 0x07
    19de:	01 96       	adiw	r24, 0x01	; 1
    19e0:	9f 83       	std	Y+7, r25	; 0x07
    19e2:	8e 83       	std	Y+6, r24	; 0x06
    19e4:	02 c0       	rjmp	.+4      	; 0x19ea <fputc+0x4c>
    19e6:	0f ef       	ldi	r16, 0xFF	; 255
    19e8:	1f ef       	ldi	r17, 0xFF	; 255
    19ea:	c8 01       	movw	r24, r16
    19ec:	df 91       	pop	r29
    19ee:	cf 91       	pop	r28
    19f0:	1f 91       	pop	r17
    19f2:	0f 91       	pop	r16
    19f4:	08 95       	ret

000019f6 <__ultoa_invert>:
    19f6:	fa 01       	movw	r30, r20
    19f8:	aa 27       	eor	r26, r26
    19fa:	28 30       	cpi	r18, 0x08	; 8
    19fc:	51 f1       	breq	.+84     	; 0x1a52 <__ultoa_invert+0x5c>
    19fe:	20 31       	cpi	r18, 0x10	; 16
    1a00:	81 f1       	breq	.+96     	; 0x1a62 <__ultoa_invert+0x6c>
    1a02:	e8 94       	clt
    1a04:	6f 93       	push	r22
    1a06:	6e 7f       	andi	r22, 0xFE	; 254
    1a08:	6e 5f       	subi	r22, 0xFE	; 254
    1a0a:	7f 4f       	sbci	r23, 0xFF	; 255
    1a0c:	8f 4f       	sbci	r24, 0xFF	; 255
    1a0e:	9f 4f       	sbci	r25, 0xFF	; 255
    1a10:	af 4f       	sbci	r26, 0xFF	; 255
    1a12:	b1 e0       	ldi	r27, 0x01	; 1
    1a14:	3e d0       	rcall	.+124    	; 0x1a92 <__ultoa_invert+0x9c>
    1a16:	b4 e0       	ldi	r27, 0x04	; 4
    1a18:	3c d0       	rcall	.+120    	; 0x1a92 <__ultoa_invert+0x9c>
    1a1a:	67 0f       	add	r22, r23
    1a1c:	78 1f       	adc	r23, r24
    1a1e:	89 1f       	adc	r24, r25
    1a20:	9a 1f       	adc	r25, r26
    1a22:	a1 1d       	adc	r26, r1
    1a24:	68 0f       	add	r22, r24
    1a26:	79 1f       	adc	r23, r25
    1a28:	8a 1f       	adc	r24, r26
    1a2a:	91 1d       	adc	r25, r1
    1a2c:	a1 1d       	adc	r26, r1
    1a2e:	6a 0f       	add	r22, r26
    1a30:	71 1d       	adc	r23, r1
    1a32:	81 1d       	adc	r24, r1
    1a34:	91 1d       	adc	r25, r1
    1a36:	a1 1d       	adc	r26, r1
    1a38:	20 d0       	rcall	.+64     	; 0x1a7a <__ultoa_invert+0x84>
    1a3a:	09 f4       	brne	.+2      	; 0x1a3e <__ultoa_invert+0x48>
    1a3c:	68 94       	set
    1a3e:	3f 91       	pop	r19
    1a40:	2a e0       	ldi	r18, 0x0A	; 10
    1a42:	26 9f       	mul	r18, r22
    1a44:	11 24       	eor	r1, r1
    1a46:	30 19       	sub	r19, r0
    1a48:	30 5d       	subi	r19, 0xD0	; 208
    1a4a:	31 93       	st	Z+, r19
    1a4c:	de f6       	brtc	.-74     	; 0x1a04 <__ultoa_invert+0xe>
    1a4e:	cf 01       	movw	r24, r30
    1a50:	08 95       	ret
    1a52:	46 2f       	mov	r20, r22
    1a54:	47 70       	andi	r20, 0x07	; 7
    1a56:	40 5d       	subi	r20, 0xD0	; 208
    1a58:	41 93       	st	Z+, r20
    1a5a:	b3 e0       	ldi	r27, 0x03	; 3
    1a5c:	0f d0       	rcall	.+30     	; 0x1a7c <__ultoa_invert+0x86>
    1a5e:	c9 f7       	brne	.-14     	; 0x1a52 <__ultoa_invert+0x5c>
    1a60:	f6 cf       	rjmp	.-20     	; 0x1a4e <__ultoa_invert+0x58>
    1a62:	46 2f       	mov	r20, r22
    1a64:	4f 70       	andi	r20, 0x0F	; 15
    1a66:	40 5d       	subi	r20, 0xD0	; 208
    1a68:	4a 33       	cpi	r20, 0x3A	; 58
    1a6a:	18 f0       	brcs	.+6      	; 0x1a72 <__ultoa_invert+0x7c>
    1a6c:	49 5d       	subi	r20, 0xD9	; 217
    1a6e:	31 fd       	sbrc	r19, 1
    1a70:	40 52       	subi	r20, 0x20	; 32
    1a72:	41 93       	st	Z+, r20
    1a74:	02 d0       	rcall	.+4      	; 0x1a7a <__ultoa_invert+0x84>
    1a76:	a9 f7       	brne	.-22     	; 0x1a62 <__ultoa_invert+0x6c>
    1a78:	ea cf       	rjmp	.-44     	; 0x1a4e <__ultoa_invert+0x58>
    1a7a:	b4 e0       	ldi	r27, 0x04	; 4
    1a7c:	a6 95       	lsr	r26
    1a7e:	97 95       	ror	r25
    1a80:	87 95       	ror	r24
    1a82:	77 95       	ror	r23
    1a84:	67 95       	ror	r22
    1a86:	ba 95       	dec	r27
    1a88:	c9 f7       	brne	.-14     	; 0x1a7c <__ultoa_invert+0x86>
    1a8a:	00 97       	sbiw	r24, 0x00	; 0
    1a8c:	61 05       	cpc	r22, r1
    1a8e:	71 05       	cpc	r23, r1
    1a90:	08 95       	ret
    1a92:	9b 01       	movw	r18, r22
    1a94:	ac 01       	movw	r20, r24
    1a96:	0a 2e       	mov	r0, r26
    1a98:	06 94       	lsr	r0
    1a9a:	57 95       	ror	r21
    1a9c:	47 95       	ror	r20
    1a9e:	37 95       	ror	r19
    1aa0:	27 95       	ror	r18
    1aa2:	ba 95       	dec	r27
    1aa4:	c9 f7       	brne	.-14     	; 0x1a98 <__ultoa_invert+0xa2>
    1aa6:	62 0f       	add	r22, r18
    1aa8:	73 1f       	adc	r23, r19
    1aaa:	84 1f       	adc	r24, r20
    1aac:	95 1f       	adc	r25, r21
    1aae:	a0 1d       	adc	r26, r0
    1ab0:	08 95       	ret

00001ab2 <__divmodhi4>:
    1ab2:	97 fb       	bst	r25, 7
    1ab4:	09 2e       	mov	r0, r25
    1ab6:	07 26       	eor	r0, r23
    1ab8:	0a d0       	rcall	.+20     	; 0x1ace <__divmodhi4_neg1>
    1aba:	77 fd       	sbrc	r23, 7
    1abc:	04 d0       	rcall	.+8      	; 0x1ac6 <__divmodhi4_neg2>
    1abe:	0c d0       	rcall	.+24     	; 0x1ad8 <__udivmodhi4>
    1ac0:	06 d0       	rcall	.+12     	; 0x1ace <__divmodhi4_neg1>
    1ac2:	00 20       	and	r0, r0
    1ac4:	1a f4       	brpl	.+6      	; 0x1acc <__divmodhi4_exit>

00001ac6 <__divmodhi4_neg2>:
    1ac6:	70 95       	com	r23
    1ac8:	61 95       	neg	r22
    1aca:	7f 4f       	sbci	r23, 0xFF	; 255

00001acc <__divmodhi4_exit>:
    1acc:	08 95       	ret

00001ace <__divmodhi4_neg1>:
    1ace:	f6 f7       	brtc	.-4      	; 0x1acc <__divmodhi4_exit>
    1ad0:	90 95       	com	r25
    1ad2:	81 95       	neg	r24
    1ad4:	9f 4f       	sbci	r25, 0xFF	; 255
    1ad6:	08 95       	ret

00001ad8 <__udivmodhi4>:
    1ad8:	aa 1b       	sub	r26, r26
    1ada:	bb 1b       	sub	r27, r27
    1adc:	51 e1       	ldi	r21, 0x11	; 17
    1ade:	07 c0       	rjmp	.+14     	; 0x1aee <__udivmodhi4_ep>

00001ae0 <__udivmodhi4_loop>:
    1ae0:	aa 1f       	adc	r26, r26
    1ae2:	bb 1f       	adc	r27, r27
    1ae4:	a6 17       	cp	r26, r22
    1ae6:	b7 07       	cpc	r27, r23
    1ae8:	10 f0       	brcs	.+4      	; 0x1aee <__udivmodhi4_ep>
    1aea:	a6 1b       	sub	r26, r22
    1aec:	b7 0b       	sbc	r27, r23

00001aee <__udivmodhi4_ep>:
    1aee:	88 1f       	adc	r24, r24
    1af0:	99 1f       	adc	r25, r25
    1af2:	5a 95       	dec	r21
    1af4:	a9 f7       	brne	.-22     	; 0x1ae0 <__udivmodhi4_loop>
    1af6:	80 95       	com	r24
    1af8:	90 95       	com	r25
    1afa:	bc 01       	movw	r22, r24
    1afc:	cd 01       	movw	r24, r26
    1afe:	08 95       	ret

00001b00 <__prologue_saves__>:
    1b00:	2f 92       	push	r2
    1b02:	3f 92       	push	r3
    1b04:	4f 92       	push	r4
    1b06:	5f 92       	push	r5
    1b08:	6f 92       	push	r6
    1b0a:	7f 92       	push	r7
    1b0c:	8f 92       	push	r8
    1b0e:	9f 92       	push	r9
    1b10:	af 92       	push	r10
    1b12:	bf 92       	push	r11
    1b14:	cf 92       	push	r12
    1b16:	df 92       	push	r13
    1b18:	ef 92       	push	r14
    1b1a:	ff 92       	push	r15
    1b1c:	0f 93       	push	r16
    1b1e:	1f 93       	push	r17
    1b20:	cf 93       	push	r28
    1b22:	df 93       	push	r29
    1b24:	cd b7       	in	r28, 0x3d	; 61
    1b26:	de b7       	in	r29, 0x3e	; 62
    1b28:	ca 1b       	sub	r28, r26
    1b2a:	db 0b       	sbc	r29, r27
    1b2c:	0f b6       	in	r0, 0x3f	; 63
    1b2e:	f8 94       	cli
    1b30:	de bf       	out	0x3e, r29	; 62
    1b32:	0f be       	out	0x3f, r0	; 63
    1b34:	cd bf       	out	0x3d, r28	; 61
    1b36:	09 94       	ijmp

00001b38 <__epilogue_restores__>:
    1b38:	2a 88       	ldd	r2, Y+18	; 0x12
    1b3a:	39 88       	ldd	r3, Y+17	; 0x11
    1b3c:	48 88       	ldd	r4, Y+16	; 0x10
    1b3e:	5f 84       	ldd	r5, Y+15	; 0x0f
    1b40:	6e 84       	ldd	r6, Y+14	; 0x0e
    1b42:	7d 84       	ldd	r7, Y+13	; 0x0d
    1b44:	8c 84       	ldd	r8, Y+12	; 0x0c
    1b46:	9b 84       	ldd	r9, Y+11	; 0x0b
    1b48:	aa 84       	ldd	r10, Y+10	; 0x0a
    1b4a:	b9 84       	ldd	r11, Y+9	; 0x09
    1b4c:	c8 84       	ldd	r12, Y+8	; 0x08
    1b4e:	df 80       	ldd	r13, Y+7	; 0x07
    1b50:	ee 80       	ldd	r14, Y+6	; 0x06
    1b52:	fd 80       	ldd	r15, Y+5	; 0x05
    1b54:	0c 81       	ldd	r16, Y+4	; 0x04
    1b56:	1b 81       	ldd	r17, Y+3	; 0x03
    1b58:	aa 81       	ldd	r26, Y+2	; 0x02
    1b5a:	b9 81       	ldd	r27, Y+1	; 0x01
    1b5c:	ce 0f       	add	r28, r30
    1b5e:	d1 1d       	adc	r29, r1
    1b60:	0f b6       	in	r0, 0x3f	; 63
    1b62:	f8 94       	cli
    1b64:	de bf       	out	0x3e, r29	; 62
    1b66:	0f be       	out	0x3f, r0	; 63
    1b68:	cd bf       	out	0x3d, r28	; 61
    1b6a:	ed 01       	movw	r28, r26
    1b6c:	08 95       	ret

00001b6e <_exit>:
    1b6e:	ff cf       	rjmp	.-2      	; 0x1b6e <_exit>
